(dp0
S'citemap'
p1
(dp2
I1
(dp3
S'F3CR7P10'
p4
F1.0
ssI2
(dp5
g4
F1.0
ssI3
(dp6
g4
F1.0
ssI4
(dp7
g4
F0.8888888888888888
ssI5
(dp8
g4
F0.7777777777777778
ssI6
(dp9
g4
F0.4444444444444444
ssI7
(dp10
g4
F0.4444444444444444
ssI8
(dp11
g4
F0.3333333333333333
ssI9
(dp12
g4
F0.2222222222222222
sss.