(dp0
S'pitsD'
p1
(lp2
(dp3
I1
(lp4
(lp5
I30
aF0.9583004553356401
aF0.40462122645369303
aaF-15835.389594518681
aF1.0
asI2
(lp6
g5
aF-15835.389594518681
aF1.0
asI3
(lp7
g5
aF-15835.389594518681
aF1.0
asI4
(lp8
g5
aF-15835.389594518681
aF1.0
asI5
(lp9
g5
aF-15835.389594518681
aF1.0
asI6
(lp10
g5
aF-15835.389594518681
aF0.4444444444444444
asI7
(lp11
g5
aF-15835.389594518681
aF0.2222222222222222
asI8
(lp12
g5
aF-15835.389594518681
aF0.1111111111111111
asI9
(lp13
g5
aF-15835.389594518681
aF0.8888888888888888
asaF2475.56823015213
as.