(dp0
S'pitsB'
p1
(lp2
(dp3
I1
(lp4
(lp5
I30
aI1
aF0.9034708258477206
aaF-160330.9518526989
aF1.0
asI2
(lp6
g5
aF-160330.9518526989
aF1.0
asI3
(lp7
g5
aF-160330.9518526989
aF1.0
asI4
(lp8
g5
aF-160330.9518526989
aF1.0
asI5
(lp9
g5
aF-160330.9518526989
aF1.0
asI6
(lp10
g5
aF-160330.9518526989
aF0.7777777777777778
asI7
(lp11
g5
aF-160330.9518526989
aF0.5555555555555556
asI8
(lp12
g5
aF-160330.9518526989
aF0.3333333333333333
asI9
(lp13
g5
aF-160330.9518526989
aF0.2222222222222222
asaF18061.80126094818
as.