(dp0
S'pitsE'
p1
(lp2
(dp3
I1
(lp4
(lp5
I30
aF0.9497104426713031
aF0.1562836852764246
aaF-127868.68035485089
aF1.0
asI2
(lp6
g5
aF-127868.68035485089
aF1.0
asI3
(lp7
g5
aF-127868.68035485089
aF1.0
asI4
(lp8
g5
aF-127868.68035485089
aF1.0
asI5
(lp9
g5
aF-127868.68035485089
aF1.0
asI6
(lp10
g5
aF-127868.68035485089
aF0.8888888888888888
asI7
(lp11
g5
aF-127868.68035485089
aF0.7777777777777778
asI8
(lp12
g5
aF-127868.68035485089
aF0.5555555555555556
asI9
(lp13
g5
aF-127868.68035485089
aF0.3333333333333333
asaF8380.564784049988
as.