(dp0
S'pitsC'
p1
(dp2
I1
(lp3
F1.0
aF1.0
aF1.0
aF1.0
aF1.0
aF1.0
aF1.0
aF1.0
aF1.0
aF1.0
asI2
(lp4
F1.0
aF1.0
aF1.0
aF1.0
aF1.0
aF1.0
aF1.0
aF1.0
aF1.0
aF1.0
asI3
(lp5
F1.0
aF1.0
aF1.0
aF1.0
aF1.0
aF1.0
aF1.0
aF1.0
aF1.0
aF1.0
asI4
(lp6
F0.8888888888888888
aF1.0
aF0.8888888888888888
aF0.8888888888888888
aF1.0
aF1.0
aF0.8888888888888888
aF0.8888888888888888
aF0.8888888888888888
aF0.8888888888888888
asI5
(lp7
F1.0
aF0.7777777777777778
aF1.0
aF0.8888888888888888
aF0.7777777777777778
aF0.8888888888888888
aF0.8888888888888888
aF0.8888888888888888
aF0.8888888888888888
aF1.0
asI6
(lp8
F0.8888888888888888
aF0.8888888888888888
aF0.6666666666666666
aF0.8888888888888888
aF0.5555555555555556
aF1.0
aF1.0
aF1.0
aF1.0
aF0.8888888888888888
asI7
(lp9
F0.8888888888888888
aF0.8888888888888888
aF0.8888888888888888
aF0.8888888888888888
aF0.8888888888888888
aF1.0
aF0.8888888888888888
aF1.0
aF1.0
aF1.0
asI8
(lp10
F0.7777777777777778
aF0.8888888888888888
aF0.8888888888888888
aF1.0
aF0.7777777777777778
aF0.7777777777777778
aF0.7777777777777778
aF0.8888888888888888
aF1.0
aF1.0
asI9
(lp11
F0.7777777777777778
aF0.7777777777777778
aF1.0
aF0.5555555555555556
aF0.8888888888888888
aF0.5555555555555556
aF0.7777777777777778
aF0.7777777777777778
aF0.7777777777777778
aF0.6666666666666666
ass.(dp0
S'pitsC'
p1
F8079.786964178085
s.