(dp0
S'pitsF'
p1
(dp2
I1
(lp3
F1.0
aF1.0
aF1.0
aF1.0
aF1.0
aF1.0
aF1.0
aF1.0
aF1.0
aF1.0
asI2
(lp4
F1.0
aF1.0
aF1.0
aF1.0
aF1.0
aF1.0
aF1.0
aF1.0
aF1.0
aF1.0
asI3
(lp5
F1.0
aF1.0
aF1.0
aF1.0
aF1.0
aF1.0
aF0.8888888888888888
aF1.0
aF1.0
aF1.0
asI4
(lp6
F0.6666666666666666
aF0.7777777777777778
aF0.8888888888888888
aF0.7777777777777778
aF0.8888888888888888
aF0.7777777777777778
aF0.7777777777777778
aF0.8888888888888888
aF0.8888888888888888
aF0.7777777777777778
asI5
(lp7
F0.5555555555555556
aF0.5555555555555556
aF0.7777777777777778
aF0.6666666666666666
aF0.7777777777777778
aF0.6666666666666666
aF0.6666666666666666
aF0.6666666666666666
aF0.5555555555555556
aF0.6666666666666666
asI6
(lp8
F0.5555555555555556
aF0.4444444444444444
aF0.3333333333333333
aF0.3333333333333333
aF0.5555555555555556
aF0.4444444444444444
aF0.3333333333333333
aF0.4444444444444444
aF0.4444444444444444
aF0.5555555555555556
asI7
(lp9
F0.3333333333333333
aF0.2222222222222222
aF0.3333333333333333
aF0.3333333333333333
aF0.2222222222222222
aF0.2222222222222222
aF0.2222222222222222
aF0.3333333333333333
aF0.4444444444444444
aF0.3333333333333333
asI8
(lp10
F0.1111111111111111
aF0.8888888888888888
aF0.6666666666666666
aF0.2222222222222222
aF0.3333333333333333
aF0.2222222222222222
aF0.4444444444444444
aF0.2222222222222222
aF0.2222222222222222
aF0.2222222222222222
asI9
(lp11
F0.6666666666666666
aF0.6666666666666666
aF0.4444444444444444
aF0.3333333333333333
aF0.2222222222222222
aF0.4444444444444444
aF0.2222222222222222
aF0.2222222222222222
aF0.4444444444444444
aF0.8888888888888888
ass.(dp0
S'pitsF'
p1
F6636.421175956726
s.