(dp0
S'F7CR3pop10'
p1
(dp2
I8
F0.4
sI9
F0.3
ss.(dp0
I8
(dp1
I1
(dp2
F0.3
(lp3
(lp4
I23
aF0.7887233511355132
aF0.0938595867742349
aa(lp5
I25
aF0.22876222127045265
aF0.9452706955539223
aa(lp6
I21
aF0.9391491627785106
aF0.38120423768821243
aa(lp7
I14
aF0.43788759365057206
aF0.49581224138185065
aa(lp8
I15
aF0.49543508709194095
aF0.4494910647887381
aa(lp9
I10
aF0.8357651039198697
aF0.43276706790505337
aa(lp10
I25
aF0.22876222127045265
aF0.9452706955539223
aa(lp11
I28
aF0.030589983033553536
aF0.0254458609934608
aa(lp12
I21
aF0.9391491627785106
aF0.38120423768821243
aa(lp13
F15.3
aF0.7163545099344646
aF0.12995356792602356
aasF0.2
(lp14
(lp15
I12
aF0.8474337369372327
aF0.763774618976614
aa(lp16
I15
aF0.49543508709194095
aF0.4494910647887381
aa(lp17
I10
aF0.8357651039198697
aF0.43276706790505337
aa(lp18
I26
aF0.0021060533511106927
aF0.4453871940548014
aa(lp19
I28
aF0.030589983033553536
aF0.0254458609934608
aa(lp20
I14
aF0.4221165755827173
aF0.029040787574867943
aa(lp21
I12
aF0.8474337369372327
aF0.763774618976614
aa(lp22
I23
aF0.7887233511355132
aF0.0938595867742349
aa(lp23
I26
aF0.0021060533511106927
aF0.4453871940548014
aa(lp24
I14
aF0.43788759365057206
aF0.49581224138185065
aassI2
(dp25
F0.3
(lp26
(lp27
I12
aF0.8474337369372327
aF0.763774618976614
aa(lp28
I23
aF0.7887233511355132
aF0.0938595867742349
aa(lp29
I26
aF0.0021060533511106927
aF0.4453871940548014
aa(lp30
I28
aF0.030589983033553536
aF0.0254458609934608
aa(lp31
I12
aF0.8474337369372327
aF0.763774618976614
aa(lp32
F24.5
aF0.2688209948131036
aF0.013739063174881473
aa(lp33
F21.7
aF0.9794324081874688
aF0.34877941407303364
aa(lp34
I26
aF0.0021060533511106927
aF0.4453871940548014
aa(lp35
I21
aF0.9391491627785106
aF0.38120423768821243
aa(lp36
I10
aF0.8357651039198697
aF0.43276706790505337
aa(lp37
I28
aF0.030589983033553536
aF0.0254458609934608
aa(lp38
I14
aF0.43788759365057206
aF0.49581224138185065
aasF0.2
(lp39
(lp40
I15
aF0.49543508709194095
aF0.4494910647887381
aa(lp41
I10
aF0.8357651039198697
aF0.43276706790505337
aa(lp42
I25
aF0.22876222127045265
aF0.9452706955539223
aa(lp43
I21
aF0.9391491627785106
aF0.38120423768821243
aa(lp44
I14
aF0.4221165755827173
aF0.029040787574867943
aa(lp45
I14
aF0.43788759365057206
aF0.49581224138185065
aa(lp46
I10
aF0.8357651039198697
aF0.43276706790505337
aa(lp47
I25
aF0.22876222127045265
aF0.9452706955539223
aa(lp48
F14.8
aF0.35016287788159217
aI1
aa(lp49
I14
aF0.4221165755827173
aF0.029040787574867943
aa(lp50
I14
aF0.43788759365057206
aF0.49581224138185065
aa(lp51
I12
aF0.8474337369372327
aF0.763774618976614
aa(lp52
F24.5
aF0.2688209948131036
aF0.013739063174881473
aa(lp53
I23
aF0.7887233511355132
aF0.0938595867742349
aa(lp54
I26
aF0.0021060533511106927
aF0.4453871940548014
aa(lp55
I25
aF0.22876222127045265
aF0.9452706955539223
aa(lp56
I30
aF0.4947159855733886
aF0.3853020713101883
aa(lp57
I14
aF0.4221165755827173
aF0.029040787574867943
aassI3
(dp58
F0.4
(lp59
(lp60
I12
aF0.8474337369372327
aF0.763774618976614
aasF0.3
(lp61
(lp62
I23
aF0.7887233511355132
aF0.0938595867742349
aa(lp63
I25
aF0.22876222127045265
aF0.9452706955539223
aa(lp64
I21
aF0.9391491627785106
aF0.38120423768821243
aa(lp65
I14
aF0.4221165755827173
aF0.029040787574867943
aa(lp66
F27.3
aI1
aF0.4265773971277693
aa(lp67
I10
aI1
aF0.7620235341769263
aa(lp68
I10
aF0.8357651039198697
aF0.43276706790505337
aa(lp69
I26
aF0.0021060533511106927
aF0.4453871940548014
aa(lp70
I28
aF0.030589983033553536
aF0.0254458609934608
aa(lp71
F28.0
aF0.019550270386055214
aI0
aa(lp72
F27.8
aI0
aF0.7589227905973694
aa(lp73
I14
aF0.43788759365057206
aF0.49581224138185065
aa(lp74
I23
aF0.7887233511355132
aF0.0938595867742349
aa(lp75
F28.0
aF0.14555441028964475
aF0.2559253873837718
aasF0.2
(lp76
(lp77
I15
aF0.49543508709194095
aF0.4494910647887381
aa(lp78
I10
aF0.8357651039198697
aF0.43276706790505337
aa(lp79
I26
aF0.0021060533511106927
aF0.4453871940548014
aa(lp80
I28
aF0.030589983033553536
aF0.0254458609934608
aa(lp81
I14
aF0.43788759365057206
aF0.49581224138185065
aa(lp82
I23
aF0.7887233511355132
aF0.0938595867742349
aa(lp83
I25
aF0.22876222127045265
aF0.9452706955539223
aa(lp84
F11.200000000000001
aI1
aF0.38372068629519746
aa(lp85
I14
aF0.43788759365057206
aF0.49581224138185065
aa(lp86
F12.6
aF0.5289129597266544
aF0.027815028215086503
aa(lp87
I23
aF0.7887233511355132
aF0.0938595867742349
aa(lp88
I10
aF0.8357651039198697
aF0.43276706790505337
aa(lp89
I25
aF0.22876222127045265
aF0.9452706955539223
aa(lp90
I28
aF0.030589983033553536
aF0.0254458609934608
aa(lp91
I21
aF0.9391491627785106
aF0.38120423768821243
aa(lp92
F16.1
aI0
aF0.7418815664782472
aa(lp93
F10.4
aI1
aF0.6094639580026607
aa(lp94
I10
aI1
aF0.7620235341769263
aa(lp95
I26
aF0.0021060533511106927
aF0.4453871940548014
aa(lp96
I25
aF0.22876222127045265
aF0.9452706955539223
aa(lp97
I21
aF0.9391491627785106
aF0.38120423768821243
aa(lp98
I14
aF0.4221165755827173
aF0.029040787574867943
aa(lp99
I14
aF0.43788759365057206
aF0.49581224138185065
aasF0.1
(lp100
(lp101
I14
aF0.4221165755827173
aF0.029040787574867943
aa(lp102
I10
aF0.8357651039198697
aF0.43276706790505337
aassI4
(dp103
F0.3
(lp104
(lp105
I12
aF0.8474337369372327
aF0.763774618976614
aa(lp106
I25
aF0.22876222127045265
aF0.9452706955539223
aa(lp107
I21
aF0.9391491627785106
aF0.38120423768821243
aa(lp108
I14
aF0.43788759365057206
aF0.49581224138185065
aa(lp109
F11.9
aF0.6685156304744215
aF0.24903927550638105
aa(lp110
I15
aF0.49543508709194095
aF0.4494910647887381
aa(lp111
I10
aF0.8357651039198697
aF0.43276706790505337
aa(lp112
I28
aF0.030589983033553536
aF0.0254458609934608
aa(lp113
I12
aF0.8474337369372327
aF0.763774618976614
aa(lp114
I15
aF0.49543508709194095
aF0.4494910647887381
aa(lp115
F13.3
aI1
aI0
aa(lp116
I30
aF0.8610921923365618
aF0.05776560562244624
aa(lp117
F15.4
aF0.021029064254023178
aF0.5196521703413782
aa(lp118
F28.7
aF0.8038011147599253
aI1
aa(lp119
I28
aF0.030589983033553536
aF0.0254458609934608
aa(lp120
I21
aF0.9391491627785106
aF0.38120423768821243
aasF0.2
(lp121
(lp122
I15
aF0.49543508709194095
aF0.4494910647887381
aa(lp123
I23
aF0.7887233511355132
aF0.0938595867742349
aa(lp124
I26
aF0.0021060533511106927
aF0.4453871940548014
aa(lp125
I28
aF0.030589983033553536
aF0.0254458609934608
aa(lp126
I14
aF0.4221165755827173
aF0.029040787574867943
aa(lp127
I23
aF0.7887233511355132
aF0.0938595867742349
aa(lp128
I26
aF0.0021060533511106927
aF0.4453871940548014
aa(lp129
I25
aF0.22876222127045265
aF0.9452706955539223
aa(lp130
F22.5
aF0.5327994110224824
aF0.4932768021013433
aa(lp131
F13.4
aF0.8673724877149427
aF0.4698156858336756
aa(lp132
I14
aF0.43788759365057206
aF0.49581224138185065
aa(lp133
I23
aF0.7887233511355132
aF0.0938595867742349
aa(lp134
I10
aF0.8357651039198697
aF0.43276706790505337
aa(lp135
I26
aF0.0021060533511106927
aF0.4453871940548014
aa(lp136
I25
aF0.22876222127045265
aF0.9452706955539223
aa(lp137
I28
aF0.030589983033553536
aF0.0254458609934608
aa(lp138
I21
aF0.9391491627785106
aF0.38120423768821243
aa(lp139
I14
aF0.4221165755827173
aF0.029040787574867943
aa(lp140
I12
aF0.8474337369372327
aF0.763774618976614
aa(lp141
I15
aF0.49543508709194095
aF0.4494910647887381
aa(lp142
F13.3
aF0.5807758931262567
aF0.3789592386242525
aa(lp143
F15.4
aF0.03014378467717499
aF0.6250285637206491
aa(lp144
I25
aF0.22876222127045265
aF0.9452706955539223
aa(lp145
I28
aF0.030589983033553536
aF0.0254458609934608
aa(lp146
I21
aF0.9391491627785106
aF0.38120423768821243
aa(lp147
I14
aF0.4221165755827173
aF0.029040787574867943
aa(lp148
I14
aF0.43788759365057206
aF0.49581224138185065
aa(lp149
I12
aF0.8474337369372327
aF0.763774618976614
aa(lp150
I10
aF0.3579157774938228
aF0.29684005447674905
aa(lp151
F19.0
aF0.6607627308621908
aI1
aa(lp152
I26
aF0.0021060533511106927
aF0.4453871940548014
aa(lp153
F10.100000000000001
aF0.1335122760548857
aF0.202976649709397
aa(lp154
I14
aF0.43788759365057206
aF0.49581224138185065
aasF0.1
(lp155
(lp156
I10
aF0.8357651039198697
aF0.43276706790505337
aasssI9
(dp157
I1
(dp158
F0.2
(lp159
(lp160
I23
aF0.993165390112413
aF0.5880453474090971
aa(lp161
I18
aF0.8542362875583159
aF0.9005878862230072
aa(lp162
I19
aF0.6257599358292166
aF0.9855130146576269
aa(lp163
I10
aF0.6882208082379445
aF0.7436355728566928
aa(lp164
I16
aF0.3869484713308845
aF0.7072904492939808
aa(lp165
I23
aF0.15077169692521586
aF0.9501217415724769
aa(lp166
I25
aF0.8603452927983642
aF0.6252371014920886
aa(lp167
F18.4
aF0.510248705380326
aF0.1781236596377096
aa(lp168
I25
aF0.4234710877880348
aF0.13071891394841717
aa(lp169
I19
aF0.6257599358292166
aF0.9855130146576269
aa(lp170
I23
aF0.15077169692521586
aF0.9501217415724769
aasF0.1
(lp171
(lp172
I25
aF0.4234710877880348
aF0.13071891394841717
aa(lp173
I13
aF0.6777169490132041
aF0.9385930756898219
aa(lp174
I26
aF0.3269784217992199
aF0.023164898023276592
aa(lp175
F11.6
aF0.18101543190200026
aI1
aa(lp176
I10
aF0.1661345625614383
aF0.9526738590904881
aa(lp177
I16
aF0.3869484713308845
aF0.7072904492939808
aa(lp178
I13
aF0.6777169490132041
aF0.9385930756898219
aa(lp179
I25
aF0.8603452927983642
aF0.6252371014920886
aa(lp180
I26
aF0.3269784217992199
aF0.023164898023276592
aassI2
(dp181
F0.2
(lp182
(lp183
I23
aF0.993165390112413
aF0.5880453474090971
aa(lp184
I18
aF0.8542362875583159
aF0.9005878862230072
aa(lp185
I19
aF0.6257599358292166
aF0.9855130146576269
aa(lp186
I10
aF0.6882208082379445
aF0.7436355728566928
aa(lp187
I23
aF0.993165390112413
aF0.5880453474090971
aa(lp188
I25
aF0.4234710877880348
aF0.13071891394841717
aa(lp189
I30
aF0.16165467971525183
aF0.19314680261822384
aa(lp190
I23
aF0.993165390112413
aF0.5880453474090971
aa(lp191
I18
aF0.8542362875583159
aF0.9005878862230072
aa(lp192
F14.2
aF0.5466186146091172
aF0.145279702360246
aa(lp193
F12.0
aF0.6677389705013819
aI1
aa(lp194
I23
aF0.15077169692521586
aF0.9501217415724769
aa(lp195
I25
aF0.8603452927983642
aF0.6252371014920886
aasF0.1
(lp196
(lp197
I25
aF0.4234710877880348
aF0.13071891394841717
aa(lp198
I16
aF0.3869484713308845
aF0.7072904492939808
aa(lp199
I13
aF0.6777169490132041
aF0.9385930756898219
aa(lp200
I23
aF0.15077169692521586
aF0.9501217415724769
aa(lp201
I25
aF0.8603452927983642
aF0.6252371014920886
aa(lp202
I26
aF0.3269784217992199
aF0.023164898023276592
aa(lp203
I19
aF0.6257599358292166
aF0.9855130146576269
aa(lp204
I10
aF0.6882208082379445
aF0.7436355728566928
aa(lp205
I16
aF0.3869484713308845
aF0.7072904492939808
aa(lp206
I13
aF0.6777169490132041
aF0.9385930756898219
aa(lp207
I23
aF0.15077169692521586
aF0.9501217415724769
aa(lp208
I25
aF0.8603452927983642
aF0.6252371014920886
aa(lp209
F19.4
aF0.4554502759312512
aF0.5804593828005313
aa(lp210
I25
aF0.4234710877880348
aF0.13071891394841717
aa(lp211
I16
aF0.3869484713308845
aF0.7072904492939808
aa(lp212
I13
aF0.6777169490132041
aF0.9385930756898219
aa(lp213
I26
aF0.3269784217992199
aF0.023164898023276592
aassI3
(dp214
F0.2
(lp215
(lp216
I23
aF0.993165390112413
aF0.5880453474090971
aa(lp217
I18
aF0.8542362875583159
aF0.9005878862230072
aa(lp218
I19
aF0.6257599358292166
aF0.9855130146576269
aa(lp219
I10
aF0.6882208082379445
aF0.7436355728566928
aa(lp220
I16
aF0.3869484713308845
aF0.7072904492939808
aa(lp221
I13
aF0.6777169490132041
aF0.9385930756898219
aa(lp222
I23
aF0.15077169692521586
aF0.9501217415724769
aa(lp223
I25
aF0.8603452927983642
aF0.6252371014920886
aa(lp224
I23
aF0.993165390112413
aF0.5880453474090971
aa(lp225
I18
aF0.8542362875583159
aF0.9005878862230072
aa(lp226
I19
aF0.6257599358292166
aF0.9855130146576269
aa(lp227
I16
aF0.3869484713308845
aF0.7072904492939808
aa(lp228
I13
aF0.6777169490132041
aF0.9385930756898219
aa(lp229
F18.1
aI1
aF0.41806344281414987
aa(lp230
I18
aF0.8542362875583159
aF0.9005878862230072
aa(lp231
I16
aF0.3869484713308845
aF0.7072904492939808
aa(lp232
I25
aF0.8603452927983642
aF0.6252371014920886
aa(lp233
I18
aF0.8542362875583159
aF0.9005878862230072
aa(lp234
I19
aF0.6257599358292166
aF0.9855130146576269
aa(lp235
I10
aF0.6882208082379445
aF0.7436355728566928
aa(lp236
F20.4
aF0.2269739242021519
aF0.665384511235151
aa(lp237
I26
aF0.3269784217992199
aF0.023164898023276592
aasF0.1
(lp238
(lp239
I25
aF0.4234710877880348
aF0.13071891394841717
aa(lp240
I26
aF0.3269784217992199
aF0.023164898023276592
aa(lp241
I30
aF0.29060851257042863
aF0.05600885530074009
aa(lp242
I10
aF0.6882208082379445
aF0.7436355728566928
aa(lp243
F11.0
aI1
aF0.8925178201051487
aa(lp244
F25.7
aF0.7004118465879947
aF0.6846846913963223
aa(lp245
I26
aF0.3269784217992199
aF0.023164898023276592
aa(lp246
I25
aF0.4234710877880348
aF0.13071891394841717
aa(lp247
I30
aF0.44318925732347986
aF0.1330315173796967
aa(lp248
I10
aF0.6882208082379445
aF0.7436355728566928
aa(lp249
I13
aF0.6777169490132041
aF0.9385930756898219
aa(lp250
F15.9
aF0.6468840854862363
aF0.7341502593054056
aa(lp251
I26
aF0.3269784217992199
aF0.023164898023276592
aa(lp252
F29.9
aI1
aF0.54176553017267
aa(lp253
I25
aF0.4234710877880348
aF0.13071891394841717
aa(lp254
I16
aF0.3869484713308845
aF0.7072904492939808
aa(lp255
I23
aF0.15077169692521586
aF0.9501217415724769
aa(lp256
I25
aF0.8603452927983642
aF0.6252371014920886
aassI4
(dp257
F0.3
(lp258
(lp259
F25.0
aI1
aF0.6552044764264999
aasF0.2
(lp260
(lp261
I23
aF0.993165390112413
aF0.5880453474090971
aa(lp262
I25
aF0.4234710877880348
aF0.13071891394841717
aa(lp263
I18
aF0.8542362875583159
aF0.9005878862230072
aa(lp264
I19
aF0.6257599358292166
aF0.9855130146576269
aa(lp265
I23
aF0.15077169692521586
aF0.9501217415724769
aa(lp266
I25
aF0.8603452927983642
aF0.6252371014920886
aa(lp267
I19
aF0.6257599358292166
aF0.9855130146576269
aa(lp268
I16
aF0.3869484713308845
aF0.7072904492939808
aa(lp269
I25
aF0.8603452927983642
aF0.6252371014920886
aa(lp270
F25.0
aI1
aF0.6552044764264999
aa(lp271
I23
aF0.993165390112413
aF0.5880453474090971
aa(lp272
I18
aF0.8542362875583159
aF0.9005878862230072
aa(lp273
I19
aF0.6257599358292166
aF0.9855130146576269
aa(lp274
I25
aF0.8603452927983642
aF0.6252371014920886
aa(lp275
F25.0
aI1
aF0.6552044764264999
aa(lp276
I23
aF0.993165390112413
aF0.5880453474090971
aa(lp277
I13
aF0.6777169490132041
aF0.9385930756898219
aa(lp278
I23
aF0.15077169692521586
aF0.9501217415724769
aa(lp279
F20.2
aI0
aI1
aa(lp280
F25.0
aI1
aF0.6552044764264999
aa(lp281
F12.0
aF0.9946216122908084
aF0.9774429485397683
aa(lp282
F29.3
aI1
aF0.5306080039477725
aa(lp283
I18
aF0.8542362875583159
aF0.9005878862230072
aa(lp284
F23.5
aF0.7982040882054979
aF0.8557141457345989
aa(lp285
F11.7
aF0.8979588982444254
aF0.7312736769623533
aa(lp286
I13
aF0.6777169490132041
aF0.9385930756898219
aa(lp287
I23
aF0.15077169692521586
aF0.9501217415724769
aasF0.1
(lp288
(lp289
I10
aF0.6882208082379445
aF0.7436355728566928
aa(lp290
I16
aF0.3869484713308845
aF0.7072904492939808
aa(lp291
I13
aF0.6777169490132041
aF0.9385930756898219
aa(lp292
I26
aF0.3269784217992199
aF0.023164898023276592
aa(lp293
F25.7
aF0.050114278088633724
aI0
aa(lp294
I25
aF0.4234710877880348
aF0.13071891394841717
aa(lp295
I18
aF0.8542362875583159
aF0.9005878862230072
aa(lp296
I10
aF0.6882208082379445
aF0.7436355728566928
aa(lp297
F18.7
aF0.9040679034844737
aF0.45592289223143473
aa(lp298
F11.6
aF0.35061547765400214
aF0.8032848698395034
aa(lp299
I25
aF0.4234710877880348
aF0.13071891394841717
aa(lp300
I10
aF0.6882208082379445
aF0.7436355728566928
aa(lp301
I16
aF0.3869484713308845
aF0.7072904492939808
aa(lp302
I13
aF0.6777169490132041
aF0.9385930756898219
aa(lp303
I23
aF0.15077169692521586
aF0.9501217415724769
aa(lp304
I25
aF0.4234710877880348
aF0.13071891394841717
aa(lp305
F21.5
aF0.32622071600016683
aF0.34949869111815424
aa(lp306
F17.6
aF0.12905841871801277
aI1
aa(lp307
I10
aF0.6882208082379445
aF0.7436355728566928
aa(lp308
I16
aF0.3869484713308845
aF0.7072904492939808
aa(lp309
F11.4
aI1
aF0.537193487254509
aa(lp310
F17.9
aF0.6819932526812379
aF0.7458475263781787
aasss.(dp0
I8
(dp1
I1
F0.3
sI2
F0.3
sI3
F0.4
sI4
F0.3
ssI9
(dp2
I1
F0.2
sI2
F0.2
sI3
F0.2
sI4
F0.3
ssI5
(dp3
I1
F0.8
sI2
F0.8
sI3
F0.9
sI4
F0.9
ssI6
(dp4
I1
F0.7
sI2
F0.7
sI3
F0.7
sI4
F0.8
ss.