(dp0
S'F3CR7pop30'
p1
(dp2
I1
I0
sI2
I0
sI3
I0
sI4
I0
sI5
I0
sI6
I0
sI7
I0
sI8
I0
sI9
I0
ss.(dp0
S'F3CR7pop30'
p1
(dp2
I1
(lp3
F11.05
aF0.675671297699152
aF0.07668816826386536
asI2
(lp4
F84.49
aF0.9208507444362771
aF0.5
asI3
(lp5
F16.615000000000002
aF0.4436110599477443
aF0.2372457444444524
asI4
(lp6
F25.33
aF0.3718759307209518
aF0.7309183367795024
asI5
(lp7
I10
aF0.5
aF0.5
asI6
(lp8
F16.15
aF0.5286955739552314
aF0.5263709867091536
asI7
(lp9
F93.506
aF0.4275601161475427
aF0.13086027259563704
asI8
(lp10
F96.30499999999999
aF0.4149362406585658
aF0.7582697532093708
asI9
(lp11
F98.08
aF0.8005491143074137
aF0.6554974678269455
ass.