(lp0
(dp1
S'pitsC'
p2
(dp3
I1
F1.0
sI2
F1.0
sI3
F1.0
sI4
F1.0
sI5
F1.0
sI6
F1.0
sI7
F1.0
sI8
F1.0
sI9
F0.7777777777777778
ssa(dp4
g2
(dp5
I1
(dp6
F1.0
(lp7
(lp8
I12
aF0.8489593995678604
aF0.7661368727868479
aa(lp9
I15
aF0.6388665319137184
aF0.3817615532231764
aa(lp10
I26
aF0.048491668612262784
aF0.7731574444341349
aa(lp11
I15
aF0.5557651584362973
aF0.19051030752916864
aa(lp12
I14
aF0.6904385608574438
aF0.7456613836977258
aa(lp13
I15
aF0.48419516144992236
aF0.841724691719098
aa(lp14
I12
aF0.7695794189833481
aF0.47573364489751785
aa(lp15
I18
aF0.037236729111037654
aF0.8835984837639237
aa(lp16
I12
aF0.34298508850199677
aF0.09123905536224754
aa(lp17
I21
aF0.5134795801490337
aF0.7740207214554511
aa(lp18
I16
aF0.07054173630211794
aF0.6881863398122248
aa(lp19
I22
aF0.9695422436800855
aF0.06129114531108961
aa(lp20
I30
aF0.04582278280566239
aF0.0737296883195078
aa(lp21
I19
aF0.06870768616059883
aF0.2736320899431585
aa(lp22
I14
aF0.49606945736863306
aF0.15335223157142272
aa(lp23
I24
aF0.5552073139442917
aF0.2997010570178555
aa(lp24
I19
aF0.5698229038915118
aF0.33778214560226266
aa(lp25
I16
aF0.7994811091993317
aF0.4476281504629228
aa(lp26
I20
aF0.9371572460370703
aF0.8516165394918063
aa(lp27
I26
aF0.3548740288127083
aF0.4526767933741008
aa(lp28
I16
aF0.5989705582702115
aF0.6159700978237309
aa(lp29
I10
aF0.8078306455169394
aF0.5824672819439457
aa(lp30
I24
aF0.6927536925378777
aF0.16583541489358897
aa(lp31
I28
aF0.9408728354963739
aF0.8207187237065796
aa(lp32
I28
aF0.41670350944875956
aF0.39954576849012735
aa(lp33
I24
aF0.1732374203158812
aF0.9403646784321069
aa(lp34
I15
aF0.8897001934072609
aF0.6230991746227502
aa(lp35
I21
aF0.7728561603977121
aF0.28750431867599957
aa(lp36
I30
aF0.7422102498055312
aF0.2836364485775824
aa(lp37
I14
aF0.15015680103542392
aF0.7345850234786504
aassI2
(dp38
F1.0
(lp39
(lp40
I19
aF0.1334884294967113
aF0.4437566434357406
aa(lp41
I29
aF0.8177005054215974
aF0.26570837563394284
aa(lp42
I27
aF0.7347028423611746
aF0.6051894288087373
aa(lp43
I11
aF0.025575838641536692
aF0.9458814131574687
aa(lp44
I26
aF0.46542081016383985
aF0.3077792411360362
aa(lp45
I28
aF0.8243153704273648
aF0.1014462232416034
aa(lp46
I19
aF0.5815061548780502
aF0.9625959382343834
aa(lp47
I24
aF0.022786775322914503
aF0.828689827980254
aa(lp48
I25
aF0.2431389128919102
aF0.4252096312607711
aa(lp49
I21
aF0.6993817570529501
aF0.5763500314085219
aa(lp50
I29
aF0.7176656308915768
aF0.4634693136643009
aa(lp51
I15
aF0.49393791374605983
aF0.22433004126186296
aa(lp52
I10
aF0.49263969029719223
aF0.3509253071269128
aa(lp53
I16
aF0.2544899892548049
aF0.07164540291650347
aa(lp54
I15
aF0.5313810666469913
aF0.5561967178888692
aa(lp55
I25
aF0.19031036720711547
aF0.938054185772092
aa(lp56
I17
aF0.5564723927133113
aF0.8054766796921818
aa(lp57
I19
aF0.7595216105876559
aF0.25491788954546146
aa(lp58
I15
aF0.14476690357045396
aF0.5282847357545661
aa(lp59
I29
aF0.4966876118004123
aF0.047567188131510785
aa(lp60
I12
aF0.5363516645293404
aF0.9179432563101234
aa(lp61
I16
aF0.8038997894803158
aF0.46506864229645317
aa(lp62
I29
aF0.5752675718711214
aF0.7861434240183558
aa(lp63
I30
aF0.5370942016797959
aF0.957076203456356
aa(lp64
I14
aF0.8439212774424152
aF0.33322211947317737
aa(lp65
I28
aF0.9130014952317942
aF0.316086895999441
aa(lp66
I19
aF0.8107940106823334
aF0.019176978377784752
aa(lp67
I24
aF0.7768824804162923
aF0.29086607781349966
aa(lp68
I18
aF0.4121511275747026
aF0.12459319465217637
aa(lp69
I20
aF0.5180646708052361
aF0.5019045569617708
aassI3
(dp70
F1.0
(lp71
(lp72
I14
aF0.3703789046576961
aF0.689344385487521
aa(lp73
I19
aF0.18527038478988256
aF0.08257581258657581
aa(lp74
I22
aF0.7507218541415388
aF0.8023843345385183
aa(lp75
I20
aF0.3864606939582908
aF0.6119601290881187
aa(lp76
I18
aF0.6328217790324522
aF0.48766792397070746
aa(lp77
I28
aF0.9004783449161156
aF0.32897429457256044
aa(lp78
I23
aF0.5361308028302488
aF0.834547777797463
aa(lp79
I13
aF0.5267450901284785
aF0.03526285773923105
aa(lp80
I27
aF0.4135642669623078
aF0.31018353145563576
aa(lp81
I10
aF0.3283761077004796
aF0.5433235311270127
aa(lp82
I18
aF0.42551893166297106
aF0.9497185273226211
aa(lp83
I20
aF0.22581306955275754
aF0.5059594803922213
aa(lp84
I15
aF0.43786746874429056
aF0.21385473674015273
aa(lp85
I10
aF0.16187346092969584
aF0.3968620236289266
aa(lp86
I21
aF0.9449199574863779
aF0.12385530611786981
aa(lp87
I25
aF0.9766841911143491
aF0.2604331197607644
aa(lp88
I11
aF0.42028267911119577
aF0.7130759685815182
aa(lp89
I26
aF0.8688946889983856
aF0.3978449905040462
aa(lp90
I30
aF0.6965102124131533
aF0.7791509632939821
aa(lp91
I25
aF0.7111177859586575
aF0.2583649405992893
aa(lp92
I10
aF0.7273133522324503
aF0.6608207912874553
aa(lp93
I27
aF0.5401407821906007
aF0.42596248207020976
aa(lp94
I13
aF0.1279792214128437
aF0.7369458816171809
aa(lp95
I18
aF0.9461039933674477
aF0.15471092979679107
aa(lp96
I20
aF0.759224850665271
aF0.8320150565077482
aa(lp97
I22
aF0.5127651753683451
aF0.4516312623433599
aa(lp98
I27
aF0.5338825250740803
aF0.17299998312630488
aa(lp99
I26
aF0.9866390040983978
aF0.495939690253291
aa(lp100
I22
aF0.6807637832315871
aF0.3158344630035845
aa(lp101
I11
aF0.7460056012654718
aF0.5820963728169419
aassI4
(dp102
F1.0
(lp103
(lp104
I19
aF0.06388853935664537
aF0.8732711585860269
aa(lp105
I23
aF0.1815518001881308
aF0.30874873468244984
aa(lp106
I18
aF0.9895621871724016
aF0.7263577626347152
aa(lp107
I13
aF0.21985705843452685
aF0.42662171025390844
aa(lp108
I14
aF0.5135058706469705
aF0.44247842346706906
aa(lp109
I30
aF0.6673706691851334
aF0.4974681754609062
aa(lp110
I16
aF0.8871850554586562
aF0.795046260820828
aa(lp111
I24
aF0.1391796433247128
aF0.26624516097504575
aa(lp112
I27
aF0.5826060741555775
aF0.10824351573604976
aa(lp113
I22
aF0.39465364949378334
aF0.32767813759810843
aa(lp114
I30
aF0.9497861659018284
aF0.10208412292364948
aa(lp115
I27
aF0.01725929833050492
aF0.6183013998989932
aa(lp116
I22
aF0.06078585287416036
aF0.2263963855210225
aa(lp117
I24
aF0.5226834750550042
aF0.48805550228195566
aa(lp118
I10
aF0.48575535573427353
aF0.932191922430803
aa(lp119
I18
aF0.2558865174558479
aF0.5033569338114092
aa(lp120
I23
aF0.3307756650963894
aF0.549411109138861
aa(lp121
I22
aF0.8686939086895006
aF0.14715749426830108
aa(lp122
I27
aF0.8923244140146549
aF0.5886740082101838
aa(lp123
I24
aF0.9259390351426252
aF0.9243664466909945
aa(lp124
I12
aF0.2880398492470848
aF0.10794841620878064
aa(lp125
I26
aF0.5723807100211947
aF0.2842877374095328
aa(lp126
I28
aF0.7539947080745821
aF0.44560973983914065
aa(lp127
I14
aF0.8408440551264346
aF0.3615534878418518
aa(lp128
I18
aF0.7825331224345681
aF0.7632473853100551
aa(lp129
I16
aF0.6387702243396104
aF0.5452424943947155
aa(lp130
I14
aF0.949715942210486
aF0.8961439670734446
aa(lp131
I17
aF0.4588526456182463
aF0.7506402644803793
aa(lp132
I18
aF0.48249883814824557
aF0.871392470227288
aa(lp133
I14
aF0.12352982067683496
aF0.22979424221935588
aassI5
(dp134
F1.0
(lp135
(lp136
I26
aF0.8134219829770316
aF0.864803167993071
aa(lp137
I26
aF0.5858404449243916
aF0.8183771722010539
aa(lp138
I30
aF0.3266873245576036
aF0.5318113638823604
aa(lp139
I21
aF0.5440677101371143
aF0.05514260916221965
aa(lp140
I12
aF0.4142124672794489
aF0.4542920958686497
aa(lp141
I11
aF0.9699324340216504
aF0.49796044452682536
aa(lp142
I24
aF0.9408222713141017
aF0.64022237453628
aa(lp143
I24
aF0.37109263585666974
aF0.8048686892266911
aa(lp144
I21
aF0.7930026376064122
aF0.8342349908389053
aa(lp145
I26
aF0.10859714478060542
aF0.22601170731774725
aa(lp146
I21
aF0.19253925353903414
aF0.4643913755216651
aa(lp147
I10
aF0.3556101047790516
aF0.9741603642675208
aa(lp148
I14
aF0.3508193436196419
aF0.6258585025403427
aa(lp149
I24
aF0.3663576661719476
aF0.9808827425938202
aa(lp150
I26
aF0.45045966343741284
aF0.7956412233675334
aa(lp151
I27
aF0.9184265550050495
aF0.837900740178852
aa(lp152
I18
aF0.9455531329374226
aF0.936279391472396
aa(lp153
I19
aF0.8109192923436689
aF0.4540403471801397
aa(lp154
I18
aF0.4914710352884138
aF0.9290680851196906
aa(lp155
I21
aF0.6636216703602811
aF0.5358285477557738
aa(lp156
I18
aF0.0714451023309554
aF0.5653333012936756
aa(lp157
I19
aF0.3217442953277272
aF0.800321668943568
aa(lp158
I29
aF0.05060841363010422
aF0.6990916232001705
aa(lp159
I17
aF0.5545219137440478
aF0.2881354022871839
aa(lp160
I21
aF0.23180084019167174
aF0.932777062137635
aa(lp161
I15
aF0.5225938775873469
aF0.9800493805688861
aa(lp162
I26
aF0.2721765384450131
aF0.3529039459942044
aa(lp163
I20
aF0.6426379471869781
aF0.8719092849832075
aa(lp164
I22
aF0.3611666725767387
aF0.2673423819747795
aasF0.6666666666666666
(lp165
(lp166
I29
aF0.9509953765242373
aF0.06799794396133368
aassI6
(dp167
F0.8888888888888888
(lp168
(lp169
I24
aF0.8393239952831257
aF0.4814709339154589
aa(lp170
I16
aF0.6739255151671593
aF0.1037295854721943
aa(lp171
I16
aF0.9143185687990011
aF0.6895524579776467
aa(lp172
I12
aF0.6138987179053351
aF0.512787980663375
aa(lp173
I21
aF0.5273645133973291
aF0.2727820601246116
aa(lp174
I13
aF0.9767742414202499
aF0.23366926867514082
aa(lp175
I16
aF0.49324441406504804
aF0.6308832063646751
aasF1.0
(lp176
(lp177
I24
aF0.47965983944433765
aF0.551258585093434
aa(lp178
I11
aF0.800064761012254
aF0.6555543821961035
aa(lp179
I22
aF0.1042044061508447
aF0.4063005003677855
aa(lp180
I17
aF0.6753885157296995
aF0.7372501305100759
aa(lp181
I11
aF0.707789087979432
aF0.2177743521551569
aa(lp182
I13
aF0.04046137555562349
aF0.8109263111935583
aa(lp183
I10
aF0.8845526394332335
aF0.9396065494592168
aa(lp184
I11
aF0.7138239527031522
aF0.6652338725638518
aa(lp185
I13
aF0.7762960427426416
aF0.9379896993046254
aa(lp186
I17
aF0.3383735819229383
aF0.5582664773743529
aa(lp187
I23
aF0.20608210072171695
aF0.6232515608205124
aa(lp188
I27
aF0.04824537675270528
aF0.35675576156529126
aa(lp189
I20
aF0.30450467766684625
aF0.8102780734413648
aa(lp190
I11
aF0.4849952915365256
aF0.11707754554301526
aa(lp191
I21
aF0.8194076737462177
aF0.8562240884505073
aa(lp192
I10
aF0.9815852779953762
aF0.6191106448490973
aa(lp193
I13
aF0.8360400764886069
aF0.8741584228137829
aa(lp194
I24
aF0.13383336916443858
aF0.7859591250577482
aa(lp195
I17
aF0.5213297975763025
aF0.9928933335431851
aasF0.7777777777777778
(lp196
(lp197
I23
aF0.7336600864999863
aF0.38824299100950377
aasF0.6666666666666666
(lp198
(lp199
I29
aF0.9765695233571837
aF0.6440575965046914
aa(lp200
I22
aF0.5381256924946674
aF0.1451232890715171
aasF0.5555555555555556
(lp201
(lp202
I29
aF0.8503608439267366
aF0.1979240132679547
aassI7
(dp203
F1.0
(lp204
(lp205
I18
aF0.42058503675705755
aF0.7607200689988809
aa(lp206
I10
aF0.026724920260152864
aF0.6267966547368907
aa(lp207
I10
aF0.4911761055397772
aF0.8275953588557249
aasF0.7777777777777778
(lp208
(lp209
I10
aF0.5869746417775098
aF0.7585472096759772
aa(lp210
I19
aF0.7022148551429683
aF0.5116870224316528
aa(lp211
I17
aF0.6634887697344178
aF0.4845657479238677
aa(lp212
I14
aF0.32487342500689564
aF0.13482636139031676
aa(lp213
I15
aF0.43549614842424483
aF0.9559419774934421
aa(lp214
I27
aF0.36960284233519536
aF0.9144251787719619
aasF0.5555555555555556
(lp215
(lp216
I12
aF0.8980909924930495
aF0.1966298153198755
aa(lp217
I20
aF0.5121610225526837
aF0.011159525115258855
aa(lp218
I23
aF0.8710159860638124
aF0.9947095229041196
aa(lp219
I19
aF0.9460391389110846
aF0.22913355280562897
aasF0.8888888888888888
(lp220
(lp221
I18
aF0.1893892821108134
aF0.1791078268309144
aa(lp222
I18
aF0.39533524219420435
aF0.6674511863483378
aa(lp223
I25
aF0.24609901953268368
aF0.3986843419569578
aa(lp224
I15
aF0.4114808602840143
aF0.6152050338639644
aa(lp225
I13
aF0.5493440668649527
aF0.824840985107747
aa(lp226
I29
aF0.12660101339218396
aF0.1467258986658577
aa(lp227
I19
aF0.054939766613831445
aF0.03557542567667015
aa(lp228
I15
aF0.5008004739619294
aF0.4233207357239059
aa(lp229
I20
aF0.797320500421524
aF0.7931699999935843
aasF0.3333333333333333
(lp230
(lp231
I26
aF0.7206259126940119
aF0.16558588160408377
aa(lp232
I26
aF0.8212959631969621
aF0.10243998430272101
aa(lp233
I30
aF0.24599541371408712
aF0.011012667020964928
aasF0.4444444444444444
(lp234
(lp235
I21
aF0.6399258339874984
aF0.18451053724143637
aa(lp236
I26
aF0.47231298241490993
aF0.06634818968479628
aa(lp237
I27
aF0.8653047607454026
aF0.2103489139483061
aasF0.6666666666666666
(lp238
(lp239
I12
aF0.9569048044109896
aF0.5249430265941557
aa(lp240
I20
aF0.4674931721160571
aF0.2257308671882942
aassI8
(dp241
F1.0
(lp242
(lp243
I12
aF0.05164984503172984
aF0.8501320448579156
aa(lp244
I12
aF0.023301957594186164
aF0.16139709077489084
aasF0.7777777777777778
(lp245
(lp246
I18
aF0.05757064991991104
aF0.0913263837462952
aa(lp247
I17
aF0.45700087263057804
aF0.6147925316424949
aa(lp248
I20
aF0.3993201968486151
aF0.8212717002470782
aa(lp249
I13
aF0.3375020056446722
aF0.19807140017131114
aa(lp250
I23
aF0.3166840094713871
aF0.8960009400835387
aa(lp251
I13
aF0.10624153762405224
aF0.03845424199504016
aasF0.4444444444444444
(lp252
(lp253
I27
aF0.6555859781645089
aF0.7191927709894733
aa(lp254
I17
aF0.6843388025439187
aF0.4019539202579401
aa(lp255
I27
aF0.4231949315163542
aF0.7083591269152058
aa(lp256
I25
aF0.4680810838181348
aF0.16740848977375247
aa(lp257
I19
aF0.4371346032037471
aF0.47584964731206025
aa(lp258
I26
aF0.9664431839131582
aF0.7545911141371395
aa(lp259
I11
aF0.6811244859731229
aF0.3678628010373641
aa(lp260
I13
aF0.46916334397525383
aF0.18276221619956814
aa(lp261
I30
aF0.27902178154727086
aF0.19408317696524036
aasF0.5555555555555556
(lp262
(lp263
I24
aF0.8728425989864412
aF0.9324218016440591
aasF0.8888888888888888
(lp264
(lp265
I29
aF0.02412121723362866
aF0.7078642303064471
aa(lp266
I26
aF0.12733886265113378
aF0.8742382652796631
aa(lp267
I18
aF0.03706042374408084
aF0.8172582012441563
aasF0.6666666666666666
(lp268
(lp269
I12
aF0.7424664070916455
aF0.7635439629288845
aa(lp270
I22
aF0.5850990489170961
aF0.812923621614988
aa(lp271
I14
aF0.6433663669547112
aF0.9547965304928322
aa(lp272
I12
aF0.5328774396386778
aF0.5925597797449469
aa(lp273
I12
aF0.4450201227398397
aF0.28783743249762744
aa(lp274
I19
aF0.41542653319824596
aF0.7500143811691831
aasF0.2222222222222222
(lp275
(lp276
I21
aF0.7331423785828167
aF0.08665060913576998
aasF0.3333333333333333
(lp277
(lp278
I26
aF0.6446946211011262
aF0.9305138620671926
aa(lp279
I26
aF0.9972270870825339
aF0.42308461004087355
aassI9
(dp280
F0.7777777777777778
(lp281
(lp282
I11
aF0.04038599829169319
aF0.32991268366054544
aasF0.2222222222222222
(lp283
(lp284
I22
aF0.6308499522029849
aF0.8716569974697089
aa(lp285
I23
aF0.9262501721948104
aF0.758247424311466
aa(lp286
I28
aF0.7281214868060876
aF0.3792719162611558
aa(lp287
I28
aF0.8891361474411295
aF0.8526419337601614
aa(lp288
I26
aF0.7574578304532231
aF0.7240995849820192
aa(lp289
I28
aF0.3968028591822653
aF0.28345168887725686
aa(lp290
I29
aF0.1598741727155446
aF0.43080866350000324
aasF0.5555555555555556
(lp291
(lp292
I27
aF0.052213324642722776
aF0.6928261886057892
aa(lp293
I30
aF0.38206355959472355
aF0.6704069138685834
aa(lp294
I18
aF0.08205507712524508
aF0.520422643006328
aasF0.4444444444444444
(lp295
(lp296
I13
aF0.33696755620463703
aF0.442969827082106
aa(lp297
I14
aF0.38593476489904577
aF0.9463352191623257
aa(lp298
I10
aF0.8483357529902377
aF0.4623571270184084
aa(lp299
I25
aF0.5669790641788103
aF0.7204903107929488
aa(lp300
I12
aF0.610200944988753
aF0.4843690790410438
aa(lp301
I24
aF0.24364167977255236
aF0.9092302940695108
aasF0.6666666666666666
(lp302
(lp303
I10
aF0.8348288440580174
aF0.9161805615832443
aa(lp304
I21
aF0.04192356072304526
aF0.9680126354153304
aa(lp305
I21
aF0.13118743733854443
aF0.9758717121163675
aasF0.1111111111111111
(lp306
(lp307
I28
aF0.7420117433665043
aF0.606583391540139
aa(lp308
I23
aF0.9816211905252518
aF0.23448912560141305
aa(lp309
I24
aF0.5945948790818604
aF0.17468724697975246
aa(lp310
I28
aF0.9659614165337618
aF0.2587116440940975
aasF0.3333333333333333
(lp311
(lp312
I21
aF0.39424453210230453
aF0.7085603322753145
aa(lp313
I19
aF0.48498620602276565
aF0.4753900682166198
aa(lp314
I25
aF0.24955966635051355
aF0.7883604501448861
aa(lp315
I10
aF0.7829558085532193
aF0.9365961985615898
aa(lp316
I17
aF0.8331668996276181
aF0.6918799716223701
aa(lp317
I24
aF0.699693621867961
aF0.6153406507187353
aasssa(dp318
g2
F8751.445545911789
sa.