(lp0
(dp1
S'pitsB'
p2
(dp3
I1
F1.0
sI2
F1.0
sI3
F1.0
sI4
F1.0
sI5
F1.0
sI6
F0.7777777777777778
sI7
F0.5555555555555556
sI8
F0.7777777777777778
sI9
F0.6666666666666666
ssa(dp4
g2
(dp5
I1
(dp6
F1.0
(lp7
(lp8
I12
aF0.8489593995678604
aF0.7661368727868479
aa(lp9
I16
aF0.4614397796887401
aF0.02401508193574337
aa(lp10
I25
aF0.547765735221433
aF0.9230539223187164
aa(lp11
I24
aF0.5072919425509391
aF0.8978403648255506
aa(lp12
I18
aF0.23286326915072691
aF0.2994460107120919
aa(lp13
I24
aF0.26847732769799
aF0.6986055966483029
aa(lp14
I13
aF0.2513945949350241
aF0.5804015781128683
aa(lp15
I16
aF0.5098939652493124
aF0.286719920530397
aa(lp16
I26
aF0.2874078499208223
aF0.8673716602594931
aa(lp17
I16
aF0.6836874756574682
aF0.4100331368792531
aa(lp18
I28
aF0.26086885848982777
aF0.5404147011508633
aa(lp19
I27
aF0.2932782550233213
aF0.45853572155098804
aa(lp20
I29
aF0.21834835075465994
aF0.498191963742779
aa(lp21
I21
aF0.38509921477676934
aF0.9239937345791259
aa(lp22
I26
aF0.8285411558928616
aF0.8634019290669468
aa(lp23
I28
aF0.8513653921448817
aF0.634898863166042
aa(lp24
I12
aF0.632827053553123
aF0.3450790724999275
aa(lp25
I29
aF0.27454740785392406
aF0.10627770719290075
aa(lp26
I28
aF0.029252391360755955
aF0.48697413768593123
aa(lp27
I30
aF0.389366034514878
aF0.8915341318065777
aa(lp28
I30
aF0.658331133591121
aF0.5147244387518426
aa(lp29
I22
aF0.48801999406593016
aF0.027820901452995407
aa(lp30
I19
aF0.11252809166336639
aF0.07335122836049261
aa(lp31
I22
aF0.2519618910508462
aF0.43710206668234525
aa(lp32
I22
aF0.10298612748305047
aF0.16234382976012537
aa(lp33
I22
aF0.7877592530873643
aF0.9895187939268283
aa(lp34
I25
aF0.22551887447933053
aF0.10502497283287784
aa(lp35
I19
aF0.09337768620482963
aF0.8351960558732758
aa(lp36
I12
aF0.6729246196885865
aF0.16427508090921145
aa(lp37
I13
aF0.567200057973789
aF0.24272729821008618
aassI2
(dp38
F1.0
(lp39
(lp40
I25
aF0.5301097747728765
aF0.8297457982839482
aa(lp41
I14
aF0.23623211170677066
aF0.38487655065853943
aa(lp42
I23
aF0.8910713820916524
aF0.858589470047712
aa(lp43
I18
aF0.6086612852890722
aF0.972512443924358
aa(lp44
I22
aF0.9363282595605404
aF0.2861300521651105
aa(lp45
I21
aF0.0946226250714187
aF0.14977873017463153
aa(lp46
I13
aF0.08679423927680073
aF0.5075001368216495
aa(lp47
I20
aF0.5106537789192733
aF0.8503698990923754
aa(lp48
I21
aF0.0324239599078336
aF0.14402339723323407
aa(lp49
I13
aF0.7648047220353478
aF0.2493153725642827
aa(lp50
I30
aF0.5238019747318264
aF0.8910159195776713
aa(lp51
I24
aF0.02490525322889321
aF0.7696181963467263
aa(lp52
I16
aF0.1405452246326449
aF0.8937570827007568
aa(lp53
I17
aF0.35925598764121697
aF0.7716616465420141
aa(lp54
I10
aF0.0992577429569071
aF0.9322450211953768
aa(lp55
I22
aF0.4938675877314388
aF0.9187077424700556
aa(lp56
I11
aF0.5637667030594704
aF0.1915358092195855
aa(lp57
I20
aF0.21916233778606672
aF0.2096282262095701
aa(lp58
I13
aF0.054344843086345344
aF0.08176025984225593
aa(lp59
I26
aF0.886394156493079
aF0.6776804340772371
aa(lp60
I30
aF0.5902145191409509
aF0.9709352150089133
aa(lp61
I19
aF0.7589795824391931
aF0.20772407564958104
aa(lp62
I20
aF0.7140722676240013
aF0.35746807184784823
aa(lp63
I11
aF0.08256895359875754
aF0.2011364393030289
aa(lp64
I28
aF0.36958025834403624
aF0.046936694096838594
aa(lp65
I25
aF0.45071517538687955
aF0.5101257305196691
aa(lp66
I11
aF0.920097305086601
aF0.4932272006350934
aa(lp67
I27
aF0.8365922425680222
aF0.6067015653122637
aa(lp68
I13
aF0.6219311127627909
aF0.3727116226133251
aa(lp69
I29
aF0.9124952513930603
aF0.3668678246297911
aassI3
(dp70
F1.0
(lp71
(lp72
I10
aF0.8515374036091888
aF0.6843440451365719
aa(lp73
I29
aF0.300566500454546
aF0.8781552313409645
aa(lp74
I19
aF0.7300415630186812
aF0.6212674693239364
aa(lp75
I18
aF0.5137989214600539
aF0.10424289109631887
aa(lp76
I29
aF0.33187895365152054
aF0.6108368816658827
aa(lp77
I23
aF0.7772412213492438
aF0.05387787562370961
aa(lp78
I18
aF0.14928246087253041
aF0.46249936368418254
aa(lp79
I17
aF0.35501204862588065
aF0.5457698737019514
aa(lp80
I21
aF0.9510740445619869
aF0.17439971707355528
aa(lp81
I14
aF0.3894805290362209
aF0.8529075963157513
aa(lp82
I21
aF0.05769918134410756
aF0.9673676089246259
aa(lp83
I19
aF0.6806629337980454
aF0.9972176717234611
aa(lp84
I28
aF0.8247036790691419
aF0.1371179904250582
aa(lp85
I25
aF0.30080931644589515
aF0.38005671127868473
aa(lp86
I20
aF0.049149780052289295
aF0.6845874392637666
aa(lp87
I16
aF0.6317409544363302
aF0.8858085243009739
aa(lp88
I24
aF0.38517237978767066
aF0.5954964265200493
aa(lp89
I18
aF0.02149702606068902
aF0.995287578822475
aa(lp90
I27
aF0.26000297881936324
aF0.29515335828520733
aa(lp91
I20
aF0.4994082132803032
aF0.7753055181544612
aa(lp92
I29
aF0.2851504402444743
aF0.1605210245056508
aa(lp93
I23
aF0.7403577969289992
aF0.9967538671565728
aa(lp94
I30
aF0.7655478765421736
aF0.9314983115284723
aa(lp95
I14
aF0.2978498475107542
aF0.2961232092305431
aa(lp96
I10
aF0.7470227745807633
aF0.17590532654462468
aa(lp97
I13
aF0.4347048112092591
aF0.4392118184713294
aa(lp98
I14
aF0.20005548491952863
aF0.4318086709495444
aa(lp99
I12
aF0.7485021275722186
aF0.7936645411982437
aa(lp100
I21
aF0.07266236056430495
aF0.5030911986974425
aa(lp101
I22
aF0.47235850050733913
aF0.7759917439028721
aassI4
(dp102
F1.0
(lp103
(lp104
I14
aF0.16106921122196832
aF0.30039967565873194
aa(lp105
I20
aF0.2959412984608057
aF0.434259109187076
aa(lp106
I14
aF0.30104582968737664
aF0.9985039344891089
aa(lp107
I12
aF0.6381511848918647
aF0.8253585808427089
aa(lp108
I18
aF0.3868642747995144
aF0.9389779757125144
aa(lp109
I18
aF0.5602751733212054
aF0.2568757035845386
aa(lp110
I25
aF0.5831087866712018
aF0.9772502085133644
aa(lp111
I27
aF0.018514669908473204
aF0.4288649092750001
aa(lp112
I22
aF0.20883376087532068
aF0.7486562135776695
aa(lp113
I15
aF0.21281257035776305
aF0.6775741630219588
aa(lp114
I28
aF0.3819998579381105
aF0.4683008628896065
aa(lp115
I25
aF0.3549231826966834
aF0.30998572339524166
aa(lp116
I14
aF0.3467103745076684
aF0.7592780404031563
aa(lp117
I26
aF0.20976382664880763
aF0.14755507136502014
aa(lp118
I13
aF0.5269679812667095
aF0.8705374268373514
aa(lp119
I16
aF0.2205055996095351
aF0.22939633391911918
aa(lp120
I11
aF0.6132243889846095
aF0.713768912535605
aa(lp121
I20
aF0.2006746040767931
aF0.3013806619752834
aa(lp122
I18
aF0.39722454727031464
aF0.7633897637840347
aa(lp123
I14
aF0.06391748601590969
aF0.8357192017599355
aasF0.8888888888888888
(lp124
(lp125
I30
aF0.5464424630652687
aF0.12339987924106868
aa(lp126
I19
aF0.6761523747538363
aF0.3857168958863176
aa(lp127
I18
aF0.8120604000666786
aF0.8398261533374866
aa(lp128
I18
aF0.7971960624893761
aF0.7290227610318658
aa(lp129
I30
aF0.5571437972573035
aF0.394247513240806
aa(lp130
I21
aF0.7980903305122828
aF0.7046694228629028
aa(lp131
I26
aF0.7468468550841457
aF0.39642899371854307
aa(lp132
I24
aF0.44366164683086434
aF0.25701112724154
aa(lp133
I27
aF0.7099460828916905
aF0.3499731633876267
aa(lp134
I30
aF0.9586703052365559
aF0.7545921097456474
aassI5
(dp135
F1.0
(lp136
(lp137
I12
aF0.12805981290084154
aF0.9465081698172167
aasF0.7777777777777778
(lp138
(lp139
I17
aF0.8897465013099987
aF0.6025339372344788
aa(lp140
I24
aF0.5187638244020307
aF0.7254186480143734
aa(lp141
I27
aF0.1888497453125213
aF0.24260305688126876
aa(lp142
I23
aF0.15436733318350962
aF0.31544909590075393
aa(lp143
I25
aF0.42627423154073346
aF0.5112086591412005
aa(lp144
I12
aF0.9239565623871554
aF0.8192516322774582
aa(lp145
I29
aF0.28595466408486686
aF0.19979731036286452
aa(lp146
I21
aF0.5636769973726147
aF0.7943749271839362
aa(lp147
I10
aF0.6505637765034695
aF0.2937348264510551
aa(lp148
I18
aF0.225319158886122
aF0.2628544091858013
aa(lp149
I30
aF0.38896014614496693
aF0.29063706506608494
aasF0.5555555555555556
(lp150
(lp151
I29
aF0.5807601794926069
aF0.08893165444572272
aa(lp152
I29
aF0.9598389417034987
aF0.38872434087537705
aasF0.8888888888888888
(lp153
(lp154
I27
aF0.22899596641591333
aF0.8833937634419626
aa(lp155
I18
aF0.054143315440874445
aF0.05862596052848962
aa(lp156
I11
aF0.39870702559685206
aF0.7021881602536969
aa(lp157
I11
aF0.2750288545744383
aF0.21917459567300593
aasF0.6666666666666666
(lp158
(lp159
I24
aF0.31141670049321285
aF0.24931812203692041
aa(lp160
I21
aF0.7039546679172933
aF0.8241445960715277
aa(lp161
I21
aF0.49149243688157496
aF0.7761033851980428
aa(lp162
I24
aF0.7239182004181726
aF0.7979162926012142
aa(lp163
I23
aF0.7542532520437044
aF0.2166004117580098
aa(lp164
I25
aF0.3189384158029066
aF0.14433787001703627
aa(lp165
I24
aF0.8794550245539432
aF0.9620948142787525
aa(lp166
I14
aF0.539527587447217
aF0.09989245431198436
aa(lp167
I18
aF0.6449033229100362
aF0.43053797545808636
aa(lp168
I22
aF0.3683477832297314
aF0.6090560016776393
aa(lp169
I22
aF0.709413047826861
aF0.644711104398142
aasF0.3333333333333333
(lp170
(lp171
I26
aF0.9250211511160279
aF0.023997195284572732
aassI6
(dp172
F0.4444444444444444
(lp173
(lp174
I20
aF0.742221832410094
aF0.3227422693232839
aa(lp175
I28
aF0.5531121943577892
aF0.7782178751439417
aa(lp176
I22
aF0.8581826673500067
aF0.6736260420241318
aa(lp177
I30
aF0.9410909385937799
aF0.7972534668272613
aa(lp178
I23
aF0.14731784502679762
aF0.04463403751910224
aa(lp179
I25
aF0.9799391740056103
aF0.14462234895773293
aa(lp180
I24
aF0.5324309341164384
aF0.34303692521444645
aa(lp181
I13
aF0.8228061379094264
aF0.1632418158871109
aa(lp182
I30
aF0.40162397545700435
aF0.45220072090774727
aasF0.7777777777777778
(lp183
(lp184
I18
aF0.030762639905796488
aF0.5195275285469229
aa(lp185
I22
aF0.013047395591492381
aF0.8715185486041374
aasF0.3333333333333333
(lp186
(lp187
I27
aF0.910472816716367
aF0.42750218480117
aa(lp188
I26
aF0.6262699747956381
aF0.49984214052286957
aa(lp189
I19
aF0.5710021013979643
aF0.5191216669825349
aa(lp190
I22
aF0.936366918621097
aF0.26758675266804877
aasF0.6666666666666666
(lp191
(lp192
I14
aF0.5673918680997561
aF0.47783395803986356
aa(lp193
I10
aF0.4035572479513955
aF0.2452311362592043
aa(lp194
I14
aF0.2000757382321937
aF0.8976102549676711
aa(lp195
I10
aF0.35305052156242445
aF0.9446576650961934
aa(lp196
I13
aF0.3983977503338068
aF0.40896817008706243
aa(lp197
I22
aF0.022996907173235617
aF0.7035723089522644
aa(lp198
I11
aF0.2951375643299322
aF0.9297472702919173
aa(lp199
I25
aF0.0797190619442161
aF0.7065967159704807
aasF0.5555555555555556
(lp200
(lp201
I18
aF0.08797597488509744
aF0.10861559132244018
aa(lp202
I28
aF0.03950587600780562
aF0.01745808428639813
aa(lp203
I24
aF0.21620808012967688
aF0.2740973755730976
aa(lp204
I13
aF0.9273655480416636
aF0.11330226186787244
aa(lp205
I14
aF0.3246262024577258
aF0.5781421442608345
aa(lp206
I13
aF0.38410944785566614
aF0.9185431162867636
aa(lp207
I22
aF0.8239306049563515
aF0.44746221586024065
aassI7
(dp208
F0.4444444444444444
(lp209
(lp210
I28
aF0.38799338891452384
aF0.6996240648722719
aa(lp211
I27
aF0.4878200161701557
aF0.6176979816431084
aa(lp212
I27
aF0.7356153807400616
aF0.8561897853490025
aa(lp213
I15
aF0.6852159332860867
aF0.9687693600181152
aa(lp214
I11
aF0.24674010547813896
aF0.7453651799149804
aa(lp215
I21
aF0.15473573786657882
aF0.6901250695663174
aa(lp216
I23
aF0.6356690638718023
aF0.3043620862349088
aa(lp217
I21
aF0.09527706137061447
aF0.40980385359516824
aasF0.5555555555555556
(lp218
(lp219
I26
aF0.7922720931396461
aF0.16989655970416986
aasF0.3333333333333333
(lp220
(lp221
I18
aF0.17103048731447162
aF0.5921929787135778
aa(lp222
I25
aF0.9044386759296076
aF0.1706601282670387
aa(lp223
I29
aF0.9017996729280467
aF0.07660278402247392
aa(lp224
I23
aF0.6614065227523974
aF0.7735361832417051
aa(lp225
I13
aF0.09208057647684889
aF0.40384039423210966
aa(lp226
I26
aF0.25667909527582183
aF0.377589098506611
aa(lp227
I11
aF0.34957699726024993
aF0.9747892962091641
aa(lp228
I26
aF0.40158548719350856
aF0.732401273491956
aa(lp229
I22
aF0.5855659492202003
aF0.7703636830439516
aa(lp230
I21
aF0.14250959423958612
aF0.5728098817716845
aa(lp231
I29
aF0.6767694939115371
aF0.5242129693931524
aa(lp232
I19
aF0.46848031982562693
aF0.1976047616818788
aa(lp233
I20
aF0.40049613354160907
aF0.8323272461832515
aa(lp234
I25
aF0.9878232468731728
aF0.8069750494228788
aa(lp235
I22
aF0.8170483308902813
aF0.5474713606395075
aa(lp236
I17
aF0.30616694938136213
aF0.24132422066958784
aa(lp237
I13
aF0.3609648873231694
aF0.6873807325213299
aasF0.2222222222222222
(lp238
(lp239
I20
aF0.9363313318948893
aF0.41844034319090695
aa(lp240
I16
aF0.9680300573104633
aF0.15944804034742144
aa(lp241
I24
aF0.674628545550891
aF0.9514144317488556
aa(lp242
I14
aF0.3179372042791714
aF0.8298641063176991
aassI8
(dp243
F0.4444444444444444
(lp244
(lp245
I13
aF0.8298827946445155
aF0.14819515829229477
aa(lp246
I19
aF0.32680108913214667
aF0.2803186194682582
aa(lp247
I16
aF0.7156467194110415
aF0.4020970016931692
aa(lp248
I18
aF0.4444308574883911
aF0.6297978046456488
aa(lp249
I21
aF0.4003524197465262
aF0.1969054397649686
aa(lp250
I28
aF0.15947271343404695
aF0.4195199675784345
aa(lp251
I11
aF0.4466035048823729
aF0.4579417811277143
aasF0.5555555555555556
(lp252
(lp253
I12
aF0.787588538167838
aF0.29933555500491554
aa(lp254
I13
aF0.1347207782935933
aF0.1737151511098464
aasF0.3333333333333333
(lp255
(lp256
I25
aF0.4843008035634644
aF0.4615873477427257
aa(lp257
I14
aF0.29839343503075155
aF0.6425806969559872
aa(lp258
I22
aF0.952065408803932
aF0.4024251379248824
aa(lp259
I26
aF0.9380055081904922
aF0.25719272119181863
aa(lp260
I26
aF0.8539241954120553
aF0.050532517914998874
aa(lp261
I28
aF0.7162222287445387
aF0.7314840155644725
aa(lp262
I14
aF0.10740882599714871
aF0.6641313099266551
aa(lp263
I12
aF0.7673219395325322
aF0.47053934491616706
aa(lp264
I23
aF0.13477968946133556
aF0.6569986753801853
aa(lp265
I11
aF0.6045891431974703
aF0.4446397008038393
aa(lp266
I27
aF0.8617398666280912
aF0.935891379792953
aa(lp267
I19
aF0.9386002953565098
aF0.9406460823835783
aa(lp268
I28
aF0.47465978359605515
aF0.6198270974567053
aa(lp269
I28
aF0.7799282880059978
aF0.20254645653834308
aasF0.7777777777777778
(lp270
(lp271
I19
aF0.8364914047867242
aF0.5526651723506051
aasF0.2222222222222222
(lp272
(lp273
I20
aF0.7913307991520642
aF0.418133889677334
aa(lp274
I17
aF0.4148309369528165
aF0.9332268568835775
aa(lp275
I27
aF0.9100064355770384
aF0.6598354840255352
aa(lp276
I28
aF0.3602930062292016
aF0.4155456725197789
aa(lp277
I22
aF0.03281156121217695
aF0.45295468584002785
aa(lp278
I29
aF0.17274834043954346
aF0.9644199823747358
aassI9
(dp279
F0.2222222222222222
(lp280
(lp281
I30
aF0.9393510677442357
aF0.28529115013561496
aa(lp282
I18
aF0.6670681975442772
aF0.33697369751371437
aa(lp283
I17
aF0.2879468553200576
aF0.9383561688875229
aa(lp284
I27
aF0.8558249475878055
aF0.4608760089296521
aa(lp285
I19
aF0.6134507929439892
aF0.036179597692375734
aa(lp286
I19
aF0.3599873692760901
aF0.278392955917725
aa(lp287
I30
aF0.7956336985947108
aF0.6199657021235219
aa(lp288
I11
aF0.8787401653087987
aF0.8372952256361765
aa(lp289
I14
aF0.6483078690213254
aF0.5859562337314783
aa(lp290
I15
aF0.18694423747425293
aF0.7268906231192286
aa(lp291
I29
aF0.44723227148203537
aF0.018240374957901602
aa(lp292
I22
aF0.3543270965834344
aF0.7631807622429432
aa(lp293
I26
aF0.7944751588197841
aF0.472031739456471
aa(lp294
I18
aF0.2547363896103299
aF0.5013275442612248
aa(lp295
I28
aF0.09848364718666787
aF0.8521404641206787
aa(lp296
I15
aF0.9627416026143266
aF0.33084349380608546
aa(lp297
I21
aF0.532667604215123
aF0.4497910820133353
aa(lp298
I30
aF0.1544913409143229
aF0.5503387918441295
aa(lp299
I16
aF0.8503012922428274
aF0.9439267037196784
aasF0.5555555555555556
(lp300
(lp301
I16
aF0.6562111147683468
aF0.8481683606612543
aasF0.4444444444444444
(lp302
(lp303
I28
aF0.18363983843873868
aF0.7158283875690638
aa(lp304
I15
aF0.8959133042585694
aF0.6459832810195609
aa(lp305
I21
aF0.9214042355961828
aF0.295286782675155
aasF0.6666666666666666
(lp306
(lp307
I10
aF0.7042423617912719
aF0.3270028946524453
aasF0.1111111111111111
(lp308
(lp309
I10
aF0.2562975335520415
aF0.011097566504396835
aa(lp310
I22
aF0.25061273439766985
aF0.23136600978461958
aasF0.3333333333333333
(lp311
(lp312
I21
aF0.7121807791558187
aF0.586364653551882
aa(lp313
I25
aF0.9379621173934295
aF0.5601162116571309
aa(lp314
I16
aF0.8086355405818886
aF0.9761037244526208
aa(lp315
I19
aF0.43541739776044597
aF0.18335049720272056
aasssa(dp316
g2
F1830.4945437908173
sa.