(dp0
S'pitsF'
p1
(dp2
I1
F1.0
sI2
F1.0
sI3
F1.0
sI4
F1.0
sI5
F1.0
sI6
F0.6666666666666666
sI7
F0.8888888888888888
sI8
F0.6666666666666666
sI9
F0.5555555555555556
ss.(dp0
S'pitsF'
p1
(dp2
I1
(lp3
ccopy_reg
_reconstructor
p4
(c__main__
Individual
p5
c__builtin__
tuple
p6
((lp7
I12
aF0.8474337369372327
aF0.763774618976614
aF1.0
tp8
tp9
Rp10
ag4
(g5
g6
((lp11
I15
aF0.49543508709194095
aF0.4494910647887381
aF1.0
tp12
tp13
Rp14
ag4
(g5
g6
((lp15
I23
aF0.7887233511355132
aF0.0938595867742349
aF1.0
tp16
tp17
Rp18
ag4
(g5
g6
((lp19
I10
aF0.8357651039198697
aF0.43276706790505337
aF1.0
tp20
tp21
Rp22
ag4
(g5
g6
((lp23
I26
aF0.0021060533511106927
aF0.4453871940548014
aF1.0
tp24
tp25
Rp26
ag4
(g5
g6
((lp27
I25
aF0.22876222127045265
aF0.9452706955539223
aF1.0
tp28
tp29
Rp30
ag4
(g5
g6
((lp31
I28
aF0.030589983033553536
aF0.0254458609934608
aF1.0
tp32
tp33
Rp34
ag4
(g5
g6
((lp35
I21
aF0.9391491627785106
aF0.38120423768821243
aF1.0
tp36
tp37
Rp38
ag4
(g5
g6
((lp39
I14
aF0.4221165755827173
aF0.029040787574867943
aF1.0
tp40
tp41
Rp42
ag4
(g5
g6
((lp43
I14
aF0.43788759365057206
aF0.49581224138185065
aF1.0
tp44
tp45
Rp46
asI2
(lp47
g4
(g5
g6
((lp48
I30
aF0.5552093255961958
aF0.9848163415553
aF1.0
tp49
tp50
Rp51
ag4
(g5
g6
((lp52
I26
aF0.8144939404782403
aF0.09220778532194429
aF1.0
tp53
tp54
Rp55
ag4
(g5
g6
((lp56
I28
aF0.7561744723797467
aF0.575906633121303
aF1.0
tp57
tp58
Rp59
ag4
(g5
g6
((lp60
I29
aF0.8835002793246026
aF0.9143184967575552
aF1.0
tp61
tp62
Rp63
ag4
(g5
g6
((lp64
I19
aF0.9820518776072423
aF0.6688838271211008
aF1.0
tp65
tp66
Rp67
ag4
(g5
g6
((lp68
I14
aF0.9602392887504246
aF0.3138170156767651
aF1.0
tp69
tp70
Rp71
ag4
(g5
g6
((lp72
I24
aF0.3184813949335368
aF0.20931015228101235
aF1.0
tp73
tp74
Rp75
ag4
(g5
g6
((lp76
I22
aF0.6572324006138067
aF0.40790912865189577
aF1.0
tp77
tp78
Rp79
ag4
(g5
g6
((lp80
I26
aF0.6112660914030527
aF0.49669059722979525
aF1.0
tp81
tp82
Rp83
ag4
(g5
g6
((lp84
I19
aF0.1660418102457425
aF0.2086643295660412
aF1.0
tp85
tp86
Rp87
asI3
(lp88
g4
(g5
g6
((lp89
I28
aF0.06801849463881526
aF0.26970436981794355
aF1.0
tp90
tp91
Rp92
ag4
(g5
g6
((lp93
I23
aF0.830236700865777
aF0.6354286320174315
aF1.0
tp94
tp95
Rp96
ag4
(g5
g6
((lp97
I30
aF0.2638974469186113
aF0.6056815718363142
aF1.0
tp98
tp99
Rp100
ag4
(g5
g6
((lp101
I12
aF0.03699635189690109
aF0.13523322539922034
aF1.0
tp102
tp103
Rp104
ag4
(g5
g6
((lp105
I24
aF0.49328706063508676
aF0.5875915022125177
aF1.0
tp106
tp107
Rp108
ag4
(g5
g6
((lp109
I24
aF0.38139467016337425
aF0.4212218287060603
aF1.0
tp110
tp111
Rp112
ag4
(g5
g6
((lp113
I30
aF0.47643567741064885
aF0.5832983498643707
aF1.0
tp114
tp115
Rp116
ag4
(g5
g6
((lp117
I29
aF0.36950527328791294
aF0.5761168949920678
aF1.0
tp118
tp119
Rp120
ag4
(g5
g6
((lp121
I27
aF0.9129052976258153
aF0.017069408343277304
aF1.0
tp122
tp123
Rp124
ag4
(g5
g6
((lp125
I19
aF0.42128280508035876
aF0.45435950306476325
aF1.0
tp126
tp127
Rp128
asI4
(lp129
g4
(g5
g6
((lp130
I24
aF0.4757006587002841
aF0.04222143930747302
aF0.8888888888888888
tp131
tp132
Rp133
ag4
(g5
g6
((lp134
I28
aF0.403438010727061
aF0.42729045223245754
aF0.8888888888888888
tp135
tp136
Rp137
ag4
(g5
g6
((lp138
I25
aF0.8541612581359003
aF0.9151906415931946
aF1.0
tp139
tp140
Rp141
ag4
(g5
g6
((lp142
I13
aF0.20443944533675573
aF0.00048761803308094986
aF1.0
tp143
tp144
Rp145
ag4
(g5
g6
((lp146
I13
aF0.7544714352623919
aF0.5074862670135465
aF0.8888888888888888
tp147
tp148
Rp149
ag4
(g5
g6
((lp150
I28
aF0.7483308595696676
aF0.36961649293810805
aF1.0
tp151
tp152
Rp153
ag4
(g5
g6
((lp154
I10
aF0.1346565693252999
aI0
aF1.0
tp155
tp156
Rp157
ag4
(g5
g6
((lp158
F28.0
aF0.6937186656599954
aF0.3446895068506299
aF1.0
tp159
tp160
Rp161
ag4
(g5
g6
((lp162
I21
aF0.03989487453580676
aF0.36492397217909567
aF0.8888888888888888
tp163
tp164
Rp165
ag4
(g5
g6
((lp166
I16
aF0.5991072245726397
aF0.29104712874151273
aF0.7777777777777778
tp167
tp168
Rp169
asI5
(lp170
g4
(g5
g6
((lp171
I29
aF0.3251528912761992
aF0.444888777979064
aF0.6666666666666666
tp172
tp173
Rp174
ag4
(g5
g6
((lp175
I29
aF0.7306513735989286
aF0.49373616235317475
aF1.0
tp176
tp177
Rp178
ag4
(g5
g6
((lp179
I14
aF0.1792766327396783
aF0.87150929138243
aF0.8888888888888888
tp180
tp181
Rp182
ag4
(g5
g6
((lp183
I14
aF0.3505603921720014
aF0.8421333508671428
aF0.7777777777777778
tp184
tp185
Rp186
ag4
(g5
g6
((lp187
F13.4
aI1
aF0.44503043524341257
aF0.7777777777777778
tp188
tp189
Rp190
ag4
(g5
g6
((lp191
I29
aF0.3891339738138042
aF0.8068866636204827
aF0.6666666666666666
tp192
tp193
Rp194
ag4
(g5
g6
((lp195
I19
aF0.9274991383015221
aF0.7174839247647586
aF0.8888888888888888
tp196
tp197
Rp198
ag4
(g5
g6
((lp199
I13
aF0.5872626551565724
aF0.14020154060628442
aF0.7777777777777778
tp200
tp201
Rp202
ag4
(g5
g6
((lp203
I12
aF0.9024665370170748
aF0.19473719114697385
aF0.7777777777777778
tp204
tp205
Rp206
ag4
(g5
g6
((lp207
I16
aF0.8857170149480721
aF0.38522624722828835
aF0.8888888888888888
tp208
tp209
Rp210
asI6
(lp211
g4
(g5
g6
((lp212
I30
aF0.19266573119060126
aF0.7989425374159368
aF0.4444444444444444
tp213
tp214
Rp215
ag4
(g5
g6
((lp216
I10
aF0.755379761192071
aF0.3389297042789896
aF0.5555555555555556
tp217
tp218
Rp219
ag4
(g5
g6
((lp220
I17
aF0.5526620410836685
aF0.19560276968721224
aF0.5555555555555556
tp221
tp222
Rp223
ag4
(g5
g6
((lp224
I18
aF0.14044581163338277
aF0.13920948938844036
aF0.5555555555555556
tp225
tp226
Rp227
ag4
(g5
g6
((lp228
I28
aF0.4297937345019539
aF0.6022881554637738
aF0.4444444444444444
tp229
tp230
Rp231
ag4
(g5
g6
((lp232
I17
aF0.08241178665121329
aF0.16537198078278414
aF0.6666666666666666
tp233
tp234
Rp235
ag4
(g5
g6
((lp236
I16
aF0.6646417218218922
aF0.2401288926654549
aF0.6666666666666666
tp237
tp238
Rp239
ag4
(g5
g6
((lp240
I23
aF0.20079277288751607
aF0.11175435774546649
aF0.5555555555555556
tp241
tp242
Rp243
ag4
(g5
g6
((lp244
I13
aF0.6563691580043055
aF0.9921301880301931
aF0.5555555555555556
tp245
tp246
Rp247
ag4
(g5
g6
((lp248
I12
aF0.6801069443753782
aF0.17543375932991045
aF0.6666666666666666
tp249
tp250
Rp251
asI7
(lp252
g4
(g5
g6
((lp253
I18
aF0.34896674512293546
aF0.20504553422250016
aF0.4444444444444444
tp254
tp255
Rp256
ag4
(g5
g6
((lp257
I30
aI1
aI1
aF0.8888888888888888
tp258
tp259
Rp260
ag4
(g5
g6
((lp261
I27
aF0.7931141739580364
aF0.09214846481626315
aF0.4444444444444444
tp262
tp263
Rp264
ag4
(g5
g6
((lp265
I25
aF0.07984064915042088
aF0.643348898023641
aF0.4444444444444444
tp266
tp267
Rp268
ag4
(g5
g6
((lp269
I20
aF0.8103479778419115
aF0.9953654144262607
aF0.5555555555555556
tp270
tp271
Rp272
ag4
(g5
g6
((lp273
I27
aF0.7733584352707173
aF0.9419024223920952
aF0.5555555555555556
tp274
tp275
Rp276
ag4
(g5
g6
((lp277
I10
aF0.6690453705528675
aI0
aF0.5555555555555556
tp278
tp279
Rp280
ag4
(g5
g6
((lp281
F13.4
aF0.625481377784167
aF0.7280483810655265
aF0.5555555555555556
tp282
tp283
Rp284
ag4
(g5
g6
((lp285
I12
aF0.5370958283360381
aF0.15039925918517882
aF0.5555555555555556
tp286
tp287
Rp288
ag4
(g5
g6
((lp289
I22
aF0.9329593093682002
aF0.8701520932783877
aF0.5555555555555556
tp290
tp291
Rp292
asI8
(lp293
g4
(g5
g6
((lp294
I17
aF0.6990826103304218
aF0.18200485221040852
aF0.4444444444444444
tp295
tp296
Rp297
ag4
(g5
g6
((lp298
I26
aF0.8755172920384513
aF0.31746742795920024
aF0.3333333333333333
tp299
tp300
Rp301
ag4
(g5
g6
((lp302
I28
aF0.7907545593794884
aF0.833082672218129
aF0.3333333333333333
tp303
tp304
Rp305
ag4
(g5
g6
((lp306
I16
aF0.3225469930045419
aF0.5716312124120201
aF0.3333333333333333
tp307
tp308
Rp309
ag4
(g5
g6
((lp310
I16
aF0.21558350339237475
aF0.3741667543635915
aF0.4444444444444444
tp311
tp312
Rp313
ag4
(g5
g6
((lp314
I26
aF0.4727187068809672
aF0.1290428954990962
aF0.4444444444444444
tp315
tp316
Rp317
ag4
(g5
g6
((lp318
I30
aI1
aF0.9349555925661084
aF0.6666666666666666
tp319
tp320
Rp321
ag4
(g5
g6
((lp322
I21
aF0.5838228188111305
aF0.22018631369291974
aF0.4444444444444444
tp323
tp324
Rp325
ag4
(g5
g6
((lp326
I20
aF0.286390352291263
aF0.171934684604944
aF0.4444444444444444
tp327
tp328
Rp329
ag4
(g5
g6
((lp330
I27
aF0.800194365673477
aF0.20016383821375983
aF0.3333333333333333
tp331
tp332
Rp333
asI9
(lp334
g4
(g5
g6
((lp335
I12
aF0.3587237452547434
aF0.21806786018556668
aF0.4444444444444444
tp336
tp337
Rp338
ag4
(g5
g6
((lp339
I19
aF0.3811467507978822
aF0.1242563852748817
aF0.2222222222222222
tp340
tp341
Rp342
ag4
(g5
g6
((lp343
I27
aF0.6536926357433859
aF0.6988228979092245
aF0.3333333333333333
tp344
tp345
Rp346
ag4
(g5
g6
((lp347
I15
aF0.9661464325913535
aF0.9644890508684797
aF0.3333333333333333
tp348
tp349
Rp350
ag4
(g5
g6
((lp351
I27
aF0.9783188935799645
aF0.7798311896304724
aF0.3333333333333333
tp352
tp353
Rp354
ag4
(g5
g6
((lp355
I17
aF0.6383598942931128
aF0.2544464095026321
aF0.3333333333333333
tp356
tp357
Rp358
ag4
(g5
g6
((lp359
I16
aF0.6732518814544004
aF0.13457405722531568
aF0.5555555555555556
tp360
tp361
Rp362
ag4
(g5
g6
((lp363
I26
aF0.6580775513355814
aF0.5082031704034742
aF0.3333333333333333
tp364
tp365
Rp366
ag4
(g5
g6
((lp367
I30
aF0.10353826181531822
aF0.3774984720352039
aF0.3333333333333333
tp368
tp369
Rp370
ag4
(g5
g6
((lp371
I13
aF0.7211082175146593
aF0.10290431150567902
aF0.4444444444444444
tp372
tp373
Rp374
ass.(dp0
S'pitsF'
p1
(dp2
I1
(dp3
F1.0
(lp4
(lp5
I12
aF0.8474337369372327
aF0.763774618976614
aa(lp6
I15
aF0.49543508709194095
aF0.4494910647887381
aa(lp7
I23
aF0.7887233511355132
aF0.0938595867742349
aa(lp8
I10
aF0.8357651039198697
aF0.43276706790505337
aa(lp9
I26
aF0.0021060533511106927
aF0.4453871940548014
aa(lp10
I25
aF0.22876222127045265
aF0.9452706955539223
aa(lp11
I28
aF0.030589983033553536
aF0.0254458609934608
aa(lp12
I21
aF0.9391491627785106
aF0.38120423768821243
aa(lp13
I14
aF0.4221165755827173
aF0.029040787574867943
aa(lp14
I14
aF0.43788759365057206
aF0.49581224138185065
aag5
ag6
ag7
ag8
ag9
a(lp15
F10.4
aI1
aF0.3789844316123497
aa(lp16
I10
aI1
aF0.7809370862199654
aag12
ag13
ag14
ag5
ag6
ag7
ag8
a(lp17
F18.3
aI1
aF0.8091477784161709
aa(lp18
F22.2
aF0.507276478458961
aF0.9011390741201641
aa(lp19
F21.3
aF0.7520598299788981
aF0.494864224228295
aag12
ag13
a(lp20
F17.1
aF0.3567145203261116
aI0
aa(lp21
F21.3
aF0.7520598299788981
aF0.494864224228295
aag6
a(lp22
I10
aF0.5365323571531446
aF0.9184315873304034
aag8
a(lp23
F29.5
aI0
aF0.3974975860082596
aag10
ag11
ag12
a(lp24
F26.5
aF0.5504923393559631
aF0.10556638459281423
aa(lp25
I30
aI0
aI0
aassI2
(dp26
F1.0
(lp27
(lp28
I30
aF0.5552093255961958
aF0.9848163415553
aa(lp29
I26
aF0.8144939404782403
aF0.09220778532194429
aa(lp30
I28
aF0.7561744723797467
aF0.575906633121303
aa(lp31
I29
aF0.8835002793246026
aF0.9143184967575552
aa(lp32
I19
aF0.9820518776072423
aF0.6688838271211008
aa(lp33
I14
aF0.9602392887504246
aF0.3138170156767651
aa(lp34
I24
aF0.3184813949335368
aF0.20931015228101235
aa(lp35
I22
aF0.6572324006138067
aF0.40790912865189577
aa(lp36
I26
aF0.6112660914030527
aF0.49669059722979525
aa(lp37
I19
aF0.1660418102457425
aF0.2086643295660412
aa(lp38
F16.2
aF0.8719687997021388
aF0.8898747674520668
aa(lp39
I30
aF0.6985309033992821
aI1
aag30
ag31
ag32
ag33
ag34
ag35
a(lp40
F17.8
aF0.4915228491499454
aI0
aag37
ag28
ag29
a(lp41
F19.1
aF0.16009387983597967
aI0
aag31
ag32
a(lp42
F16.8
aF0.9209995526856248
aF0.6555050367046185
aag34
ag35
ag36
a(lp43
F23.7
aF0.14211646210239293
aF0.7277467290666167
aag28
ag29
ag30
ag31
ag32
ag33
ag34
ag35
ag36
ag37
assI3
(dp44
F1.0
(lp45
(lp46
I28
aF0.06801849463881526
aF0.26970436981794355
aa(lp47
I23
aF0.830236700865777
aF0.6354286320174315
aa(lp48
I30
aF0.2638974469186113
aF0.6056815718363142
aa(lp49
I12
aF0.03699635189690109
aF0.13523322539922034
aa(lp50
I24
aF0.49328706063508676
aF0.5875915022125177
aa(lp51
I24
aF0.38139467016337425
aF0.4212218287060603
aa(lp52
I30
aF0.47643567741064885
aF0.5832983498643707
aa(lp53
I29
aF0.36950527328791294
aF0.5761168949920678
aa(lp54
I27
aF0.9129052976258153
aF0.017069408343277304
aa(lp55
I19
aF0.42128280508035876
aF0.45435950306476325
aag46
ag47
ag48
ag49
ag50
ag51
ag52
ag53
a(lp56
I10
aF0.07324062415161317
aF0.05000305105010719
aag55
a(lp57
I30
aI0
aI1
aag47
a(lp58
F23.7
aF0.7237206947197292
aF0.7125569431371445
aag49
ag50
a(lp59
F19.0
aF0.00075207964218902
aF0.22046339974833348
aa(lp60
F20.5
aF0.46804192130639594
aF0.42925405376037523
aag53
a(lp61
I30
aI1
aF0.24045780270915731
aag55
ag46
a(lp62
F26.2
aF0.5888685961551042
aF0.6821791162137495
aag48
a(lp63
F21.2
aF0.43541904290306
aI1
aag50
ag51
ag52
ag53
a(lp64
F21.1
aF0.11575407092974227
aF0.8507197621295286
aag55
assI4
(dp65
F0.8888888888888888
(lp66
(lp67
I24
aF0.4757006587002841
aF0.04222143930747302
aa(lp68
I28
aF0.403438010727061
aF0.42729045223245754
aa(lp69
I13
aF0.7544714352623919
aF0.5074862670135465
aa(lp70
I17
aF0.6710895440090188
aF0.8289401175546389
aa(lp71
I16
aF0.6771246444435999
aF0.3266571088664816
aa(lp72
I21
aF0.03989487453580676
aF0.36492397217909567
aag68
ag69
ag67
a(lp73
F17.9
aF0.7003446348604583
aF0.00377238256438962
aa(lp74
F13.3
aI0
aF0.6864505094106672
aa(lp75
F20.5
aF0.8671493037260671
aI0
aag72
ag67
a(lp76
I13
aF0.20443944533675573
aF0.00048761803308094986
aag69
a(lp77
F13.3
aF0.23503441812928222
aF0.6906093515733471
aag72
asF0.7777777777777778
(lp78
(lp79
I30
aF0.3492952571539066
aF0.3007100415295121
aa(lp80
F24.7
aF0.47147608839607735
aF0.3938195453891831
aag72
a(lp81
I16
aF0.5991072245726397
aF0.29104712874151273
aa(lp82
F18.6
aF0.33258964522557277
aF0.06086298486006994
aag81
ag68
ag81
asF0.6666666666666666
(lp83
g81
asF1.0
(lp84
(lp85
I25
aF0.8541612581359003
aF0.9151906415931946
aag76
a(lp86
I28
aF0.7483308595696676
aF0.36961649293810805
aag85
ag76
ag86
a(lp87
F28.0
aF0.6937186656599954
aF0.3446895068506299
aag85
a(lp88
F25.0
aI1
aI1
aa(lp89
I10
aF0.1346565693252999
aI0
aag85
ag86
ag89
assI5
(dp90
F1.0
(lp91
(lp92
I29
aF0.7306513735989286
aF0.49373616235317475
aag92
asF0.7777777777777778
(lp93
(lp94
I19
aF0.9274991383015221
aF0.7174839247647586
aa(lp95
I12
aF0.9024665370170748
aF0.19473719114697385
aag94
a(lp96
I13
aF0.5872626551565724
aF0.14020154060628442
aa(lp97
F13.4
aI1
aF0.44503043524341257
aag94
a(lp98
F17.1
aI1
aF0.06523153162171857
aag95
a(lp99
I16
aF0.8857170149480721
aF0.38522624722828835
aa(lp100
I14
aF0.1792766327396783
aF0.87150929138243
aa(lp101
I14
aF0.3505603921720014
aF0.8421333508671428
aag97
ag96
ag95
ag99
asF0.4444444444444444
(lp102
(lp103
F26.1
aF0.30419971384247635
aF0.9459628126084713
aasF0.5555555555555556
(lp104
(lp105
I29
aF0.3251528912761992
aF0.444888777979064
aa(lp106
I29
aF0.3891339738138042
aF0.8068866636204827
aasF0.8888888888888888
(lp107
g92
ag100
ag99
ag94
asF0.6666666666666666
(lp108
g100
ag101
a(lp109
I24
aF0.09528166198842658
aF0.7744455179730685
aag96
ag99
ag105
a(lp110
F16.0
aF0.8409302571717485
aF0.13182772727929531
aa(lp111
F17.0
aF0.47213727712982906
aF0.7118636007740616
aag106
ag95
a(lp112
F24.0
aI0
aF0.9936508688601841
aag100
ag106
a(lp113
I10
aF0.7722027650897274
aI1
aa(lp114
I10
aF0.9641182702979749
aF0.07761962340727761
aag106
assI6
(dp115
F0.4444444444444444
(lp116
(lp117
I30
aF0.19266573119060126
aF0.7989425374159368
aa(lp118
I17
aF0.5526620410836685
aF0.19560276968721224
aa(lp119
I28
aF0.4297937345019539
aF0.6022881554637738
aa(lp120
I23
aF0.20079277288751607
aF0.11175435774546649
aag117
a(lp121
I10
aF0.755379761192071
aF0.3389297042789896
aa(lp122
F27.3
aF0.4464101849617048
aF0.030600655373575925
aa(lp123
F12.7
aF0.7207307618628969
aF0.1571200153538698
aag117
a(lp124
I30
aF0.10509947024789063
aF0.5124259810197819
aag119
ag120
a(lp125
I13
aF0.6563691580043055
aF0.9921301880301931
aag117
a(lp126
I18
aF0.14044581163338277
aF0.13920948938844036
aag119
a(lp127
I17
aF0.08241178665121329
aF0.16537198078278414
aag120
ag125
a(lp128
F25.4
aI0
aF0.41888346474160737
aasF0.6666666666666666
(lp129
g127
a(lp130
I16
aF0.6646417218218922
aF0.2401288926654549
aa(lp131
I12
aF0.6801069443753782
aF0.17543375932991045
aag130
ag131
asF0.5555555555555556
(lp132
g121
ag126
ag127
ag130
ag125
ag131
ag118
ag120
ag125
ag121
ag126
ag127
ag121
ag118
ag130
assI7
(dp133
F0.8888888888888888
(lp134
(lp135
I30
aI1
aI1
aag135
asF0.4444444444444444
(lp136
(lp137
I18
aF0.34896674512293546
aF0.20504553422250016
aa(lp138
I12
aF0.3025145148808839
aF0.17482446492289416
aa(lp139
I27
aF0.7931141739580364
aF0.09214846481626315
aa(lp140
I20
aF0.8103479778419115
aF0.9953654144262607
aa(lp141
I20
aF0.4405728102822777
aF0.0670036307913926
aa(lp142
I22
aF0.9329593093682002
aF0.8701520932783877
aag137
a(lp143
I25
aF0.07984064915042088
aF0.643348898023641
aag141
ag137
ag139
a(lp144
F23.6
aI0
aF0.7309982228271521
aa(lp145
F12.0
aF0.5232668112549147
aF0.7452270294882613
aa(lp146
I10
aF0.24545280488235022
aF0.055347705293902066
aag137
a(lp147
F22.380000000000003
aF0.9225501712093589
aF0.5548797900081568
aa(lp148
F22.9
aF0.3369030824042229
aI0
aasF0.3333333333333333
(lp149
g143
a(lp150
I12
aF0.4000307043148138
aF0.09472270665353688
aa(lp151
I12
aF0.5370958283360381
aF0.15039925918517882
aag139
a(lp152
F22.9
aI0
aF0.6026805936981077
aa(lp153
F13.4
aF0.625481377784167
aF0.7280483810655265
aag151
ag139
a(lp154
I10
aF0.274932792784955
aI0
aag153
asF0.5555555555555556
(lp155
(lp156
I27
aF0.7733584352707173
aF0.9419024223920952
aag140
ag156
ag153
ag151
ag142
ag142
ag156
a(lp157
I10
aF0.6690453705528675
aI0
aag151
ag142
assI8
(dp158
F0.2222222222222222
(lp159
(lp160
I17
aF0.6990826103304218
aF0.18200485221040852
aa(lp161
I21
aF0.5838228188111305
aF0.22018631369291974
aa(lp162
F28.8
aF0.4474090583816719
aI0
aa(lp163
I16
aF0.3225469930045419
aF0.5716312124120201
aa(lp164
F27.4
aF0.41338479401969314
aF0.48997356648034635
aa(lp165
F16.6
aF0.048574995942546995
aF0.22724504689858976
aag160
asF0.3333333333333333
(lp166
(lp167
I26
aF0.8755172920384513
aF0.31746742795920024
aa(lp168
I28
aF0.7907545593794884
aF0.833082672218129
aag163
a(lp169
I16
aF0.21558350339237475
aF0.3741667543635915
aa(lp170
I27
aF0.800194365673477
aF0.20016383821375983
aag168
ag169
ag161
a(lp171
I20
aF0.286390352291263
aF0.171934684604944
aag170
ag167
ag168
ag163
ag169
a(lp172
I26
aF0.4727187068809672
aF0.1290428954990962
aa(lp173
I18
aF0.2712000926915118
aF0.7200728906019127
aag161
ag170
ag167
ag168
ag163
ag170
asF0.6666666666666666
(lp174
(lp175
I30
aI1
aF0.9349555925661084
aasF0.4444444444444444
(lp176
g172
ag173
ag171
ag160
ag172
ag173
ag169
a(lp177
F26.7
aF0.6809214334448744
aF0.16281903586067922
aag161
ag171
assI9
(dp178
F0.4444444444444444
(lp179
(lp180
I12
aF0.3587237452547434
aF0.21806786018556668
aa(lp181
I13
aF0.7211082175146593
aF0.10290431150567902
aasF0.2222222222222222
(lp182
g180
a(lp183
I19
aF0.3811467507978822
aF0.1242563852748817
aa(lp184
I27
aF0.6536926357433859
aF0.6988228979092245
aa(lp185
I15
aF0.9661464325913535
aF0.9644890508684797
aa(lp186
I26
aF0.6580775513355814
aF0.5082031704034742
aag183
a(lp187
F24.7
aF0.44403395200531803
aF0.43171587023485763
aa(lp188
I27
aF0.9783188935799645
aF0.7798311896304724
aag180
ag183
ag188
a(lp189
I16
aF0.6732518814544004
aF0.13457405722531568
aag181
ag183
ag188
ag189
ag181
asF0.3333333333333333
(lp190
g188
a(lp191
I17
aF0.6383598942931128
aF0.2544464095026321
aag185
a(lp192
I30
aF0.2943203812771708
aF0.7796950308792439
aag189
ag186
a(lp193
I30
aF0.10353826181531822
aF0.3774984720352039
aag185
ag191
ag186
ag193
ag180
ag184
ag185
a(lp194
F14.6
aF0.8533010819010618
aF0.22570707418474095
aag193
asF0.1111111111111111
(lp195
g193
ag181
ag184
ag191
asF0.5555555555555556
(lp196
g189
asss.