(dp0
S'pitsF'
p1
(dp2
I1
F1.0
sI2
F1.0
sI3
F1.0
sI4
F1.0
sI5
F0.8888888888888888
sI6
F0.6666666666666666
sI7
F0.5555555555555556
sI8
F0.6666666666666666
sI9
F0.8888888888888888
ss.(dp0
S'pitsF'
p1
(dp2
I1
(dp3
F1.0
(lp4
(lp5
I12
aF0.8626903632435095
aF0.7873971570789526
aa(lp6
I15
aF0.5458915783827468
aF0.5045419583098644
aa(lp7
I23
aF0.8098510160219619
aF0.1844736280968114
aa(lp8
I10
aF0.8521885935278827
aF0.489490361114548
aa(lp9
I26
aF0.10189544801599963
aF0.5008484746493213
aa(lp10
I25
aF0.3058859991434074
aF0.95074362599853
aa(lp11
I28
aF0.1275309847301982
aF0.12290127489411473
aa(lp12
I21
aF0.9452342465006595
aF0.4430838139193912
aa(lp13
I14
aF0.47990491802444557
aF0.12613670881738115
aa(lp14
I14
aF0.4940988342855148
aF0.5462310172436656
aag5
ag6
ag7
ag8
ag9
a(lp15
F10.4
aI1
aF0.4410859884511147
aa(lp16
I10
aI1
aF0.8028433775979689
aag12
ag13
ag14
ag5
ag6
ag7
ag8
a(lp17
F18.3
aI1
aF0.8282330005745538
aa(lp18
F22.2
aF0.5565488306130649
aF0.9110251667081477
aa(lp19
F21.3
aF0.7768538469810082
aF0.5453778018054656
aag12
ag13
a(lp20
F17.1
aF0.42104306829350036
aF0.1
aa(lp21
F21.3
aF0.7768538469810082
aF0.5453778018054656
aag6
a(lp22
I10
aF0.5828791214378302
aF0.9265884285973632
aag8
a(lp23
F29.5
aF0.1
aF0.4577478274074336
aag10
ag11
ag12
a(lp24
F26.5
aF0.5954431054203668
aF0.19500974613353284
aa(lp25
I30
aF0.1
aF0.1
aassI2
(dp26
F1.0
(lp27
(lp28
I30
aF0.5996883930365763
aF0.9863347073997699
aa(lp29
I26
aF0.8330445464304163
aF0.18298700678974988
aa(lp30
I28
aF0.7805570251417719
aF0.6183159698091727
aa(lp31
I29
aF0.8951502513921423
aF0.9228866470817997
aa(lp32
I19
aF0.9838466898465181
aF0.7019954444089908
aa(lp33
I14
aF0.9642153598753822
aF0.3824353141090886
aa(lp34
I24
aF0.3866332554401831
aF0.2883791370529111
aa(lp35
I22
aF0.6915091605524261
aF0.4671182157867062
aa(lp36
I26
aF0.6501394822627474
aF0.5470215375068157
aa(lp37
I19
aF0.24943762922116824
aF0.2877978966094371
aa(lp38
F16.2
aF0.884771919731925
aF0.9008872907068601
aa(lp39
I30
aF0.728677813059354
aI1
aag30
ag31
ag32
ag33
ag34
ag35
a(lp40
F17.8
aF0.5423705642349509
aF0.1
aag37
ag28
ag29
a(lp41
F19.1
aF0.24408449185238174
aF0.1
aag31
ag32
a(lp42
F16.8
aF0.9288995974170624
aF0.6899545330341565
aag34
ag35
ag36
a(lp43
F23.7
aF0.22790481589215367
aF0.754972056159955
aag28
ag29
ag30
ag31
ag32
ag33
ag34
ag35
ag36
ag37
assI3
(dp44
F1.0
(lp45
(lp46
I28
aF0.16121664517493375
aF0.34273393283614917
aa(lp47
I23
aF0.8472130307791993
aF0.6718857688156883
aa(lp48
I30
aF0.3375077022267502
aF0.6451134146526828
aa(lp49
I12
aF0.133296716707211
aF0.2217099028592983
aa(lp50
I24
aF0.5439583545715782
aF0.6288323519912659
aa(lp51
I24
aF0.4432552031470368
aF0.4790996458354543
aa(lp52
I30
aF0.528792109669584
aF0.6249685148779336
aa(lp53
I29
aF0.4325547459591217
aF0.6185052054928609
aa(lp54
I27
aF0.9216147678632337
aF0.11536246750894957
aa(lp55
I19
aF0.4791545245723229
aF0.5089235527582869
aag46
ag47
ag48
ag49
ag50
ag51
ag52
ag53
a(lp56
I10
aF0.16591656173645183
aF0.14500274594509655
aag55
a(lp57
I30
aF0.1
aI1
aag47
a(lp58
F23.7
aF0.7513486252477564
aF0.7413012488234301
aag49
ag50
a(lp59
F19.0
aF0.10067687167797015
aF0.2984170597735001
aa(lp60
F20.5
aF0.5212377291757564
aF0.48632864838433776
aag53
a(lp61
I30
aI1
aF0.3164120224382416
aag55
ag46
a(lp62
F26.2
aF0.6299817365395939
aF0.7139612045923744
aag48
a(lp63
F21.2
aF0.49187713861275406
aI1
aag50
ag51
ag52
ag53
a(lp64
F21.1
aF0.20417866383676814
aF0.8656477859165758
aag55
assI4
(dp65
F0.8888888888888888
(lp66
(lp67
I24
aF0.5281305928302558
aF0.13799929537672573
aa(lp68
I28
aF0.4630942096543549
aF0.4845614070092118
aa(lp69
I13
aF0.7790242917361527
aF0.5567376403121919
aa(lp70
I28
aF0.7734977736127009
aF0.4326548436442973
aa(lp71
I17
aF0.7039805896081169
aF0.846046105799175
aa(lp72
I16
aF0.7094121799992399
aF0.3939913979798334
aa(lp73
I30
aF0.4143657314385159
aF0.3706390373765609
aag68
a(lp74
I25
aF0.8687451323223102
aF0.9236715774338752
aag70
a(lp75
F24.7
aF0.5243284795564697
aF0.45443759085026486
aa(lp76
I16
aF0.6391965021153757
aF0.3619424158673614
aag67
ag74
a(lp77
F25.0
aI1
aI1
aa(lp78
F18.6
aF0.3993306807030155
aF0.15477668637406294
aag68
ag74
ag76
asF0.7777777777777778
(lp79
(lp80
F28.0
aF0.724346799093996
aF0.4102205561655669
aa(lp81
F17.9
aF0.7303101713744125
aF0.10339514430795069
aa(lp82
F20.5
aF0.8804343733534605
aF0.1
aag67
asF1.0
(lp83
g74
a(lp84
I13
aF0.28399550080308017
aF0.10043885622977286
aa(lp85
I21
aF0.1359053870822261
aF0.4284315749611861
aag76
ag84
ag69
ag85
a(lp86
F13.3
aF0.1
aF0.7178054584696005
aa(lp87
I10
aF0.22119091239276994
aF0.1
aag85
ag76
ag84
ag69
ag86
ag87
a(lp88
F13.3
aF0.31153097631635396
aF0.7215484164160124
aag85
assI5
(dp89
F0.8888888888888888
(lp90
(lp91
I14
aF0.2613489694657105
aF0.8843583622441871
aa(lp92
F24.0
aF0.1
aF0.9942857819741656
aag91
a(lp93
F26.1
aF0.3737797424582287
aF0.9513665313476242
aa(lp94
I24
aF0.18575349578958394
aF0.7970009661757617
aa(lp95
I29
aF0.45022057643242386
aF0.8261979972584343
aasF0.7777777777777778
(lp96
(lp97
I29
aF0.39263760214857923
aF0.5003999001811577
aag91
a(lp98
I14
aF0.41550435295480126
aF0.8579200157804285
aag94
ag95
a(lp99
I12
aF0.9122198833153673
aF0.27526347203227647
aa(lp100
I16
aF0.8971453134532649
aF0.4467036225054596
aa(lp101
F17.0
aF0.5249235494168462
aF0.7406772406966556
aag95
ag95
a(lp102
I19
aF0.9347492244713699
aF0.7457355322882828
aa(lp103
F22.6
aF0.9581041995881876
aF0.7773813565675063
aag91
ag93
asF0.6666666666666666
(lp104
(lp105
I29
aF0.7575862362390358
aF0.5443625461178573
aag102
a(lp106
I13
aF0.6285363896409152
aF0.226181386545656
aag97
ag105
a(lp107
F16.0
aF0.8568372314545736
aF0.21864495455136593
aag102
ag106
ag99
ag105
a(lp108
F13.4
aI1
aF0.5005273917190713
aag99
ag100
a(lp109
I10
aF0.9677064432681775
aF0.16985766106654993
aag102
ag106
ag99
ag100
asF0.5555555555555556
(lp110
g100
a(lp111
F17.1
aI1
aF0.15870837845954677
aassI6
(dp112
F0.4444444444444444
(lp113
(lp114
I17
aF0.5973958369753016
aF0.276042492718491
aa(lp115
I16
aF0.6981775496397029
aF0.31611600339890944
aa(lp116
I30
aF0.27339915807154114
aF0.8190482836743431
aa(lp117
I10
aF0.7798417850728638
aF0.4050367338510906
aa(lp118
F27.3
aF0.5017691664655344
aF0.1275405898362183
aa(lp119
I13
aF0.690732242203875
aF0.9929171692271739
aa(lp120
I12
aF0.7120962499378404
aF0.2578903833969194
aag117
ag120
ag117
ag115
asF0.6666666666666666
(lp121
(lp122
I17
aF0.17417060798609196
aF0.24883478270450574
aa(lp123
I23
aF0.28071349559876446
aF0.20057892197091987
aag119
ag122
ag123
ag116
a(lp124
I30
aF0.1945895232231017
aF0.5611833829178037
aag119
ag116
ag124
a(lp125
F25.4
aF0.1
aF0.47699511826744656
aasF0.3333333333333333
(lp126
(lp127
F12.7
aF0.7486576856766072
aF0.24140801381848281
aasF0.5555555555555556
(lp128
g116
ag117
a(lp129
I18
aF0.2264012304700445
aF0.22528854044959634
aa(lp130
I28
aF0.48681436105175857
aF0.6420593399173964
aag120
ag114
ag115
ag129
ag130
ag122
ag115
ag123
ag129
ag130
ag122
ag123
ag119
assI7
(dp131
F0.4444444444444444
(lp132
(lp133
I18
aF0.41407007061064194
aF0.28454098080025014
aa(lp134
I12
aF0.37226306339279547
aF0.2573420184306048
aa(lp135
I27
aF0.8138027565622328
aF0.18293361833463684
aa(lp136
I25
aF0.1718565842353788
aF0.6790140082212769
aa(lp137
I12
aF0.46002763388333245
aF0.1852504359881832
aa(lp138
I12
aF0.5833862455024343
aF0.23535933326666095
aa(lp139
I22
aF0.9396633784313801
aF0.8831368839505489
aag133
a(lp140
I20
aF0.8293131800577204
aF0.9958288729836346
aa(lp141
I27
aF0.7960225917436456
aF0.9477121801528857
aag133
a(lp142
I30
aI1
aI1
aa(lp143
F12.0
aF0.5709401301294234
aF0.7707043265394351
aa(lp144
F22.9
aF0.1
aF0.6424125343282969
aag133
ag135
a(lp145
F22.9
aF0.40321277416380064
aF0.1
aag138
ag139
asF0.3333333333333333
(lp146
g140
a(lp147
I20
aF0.49651552925404996
aF0.16030326771225334
aag135
ag147
ag138
ag135
a(lp148
I10
aF0.1788736001084227
aF0.1
aag137
a(lp149
I10
aF0.20540558922076707
aF0.1
aa(lp150
I10
aF0.7021408334975807
aF0.1
aag137
asF0.2222222222222222
(lp151
(lp152
F13.4
aF0.6629332400057504
aF0.7552435429589739
aa(lp153
F19.37
aI1
aF0.1
aasF0.5555555555555556
(lp154
g141
ag142
ag136
ag139
a(lp155
F23.6
aF0.1
aF0.7578984005444369
aag138
ag139
ag141
assI8
(dp156
F0.4444444444444444
(lp157
(lp158
I26
aF0.8879655628346061
aF0.3857206851632803
aa(lp159
I28
aF0.8116791034415395
aF0.8497744049963162
aa(lp160
I21
aF0.6254405369300174
aF0.2981676823236278
aa(lp161
I20
aF0.3577513170621367
aF0.2547412161444496
aa(lp162
I16
aF0.3902922937040878
aF0.614468091170818
aa(lp163
I16
aF0.29402515305313726
aF0.4367500789272324
aa(lp164
I26
aF0.5254468361928705
aF0.2161386059491866
aag160
ag159
ag164
a(lp165
I18
aF0.3440800834223606
aF0.7480656015417214
aag160
ag162
ag163
ag160
asF0.5555555555555556
(lp166
(lp167
I17
aF0.7291743492973797
aF0.2638043669893677
aag159
ag161
ag162
a(lp168
I30
aI1
aF0.9414600333094977
aasF0.3333333333333333
(lp169
g167
ag163
ag164
ag165
a(lp170
F28.8
aF0.5026681525435047
aF0.1
aa(lp171
I27
aF0.8201749291061293
aF0.28014745439238387
aa(lp172
F27.4
aF0.47204631461772384
aF0.5409762098323116
aag158
ag163
ag171
ag167
ag159
a(lp173
F26.7
aF0.712829290100387
aF0.24653713227461133
aag161
ag171
asF0.2222222222222222
(lp174
g171
a(lp175
F16.6
aF0.14371749634829234
aF0.30452054220873076
aag158
asF0.6666666666666666
(lp176
g162
ag165
assI9
(dp177
F0.1111111111111111
(lp178
(lp179
I17
aF0.6745239048638015
aF0.3290017685523689
aasF0.2222222222222222
(lp180
(lp181
I19
aF0.443032075718094
aF0.21183074674739355
aa(lp182
I26
aF0.6922697962020233
aF0.5573828533631268
aa(lp183
I27
aF0.980487004221968
aF0.8018480706674251
aa(lp184
I30
aF0.3648883431494537
aF0.8017255277913193
aag182
a(lp185
I16
aF0.7059266933089604
aF0.22111665150278412
aa(lp186
I13
aF0.7489973957631934
aF0.19261388035511112
aasF0.5555555555555556
(lp187
(lp188
I15
aF0.9695317893322181
aF0.9680401457816317
aag188
asF0.8888888888888888
(lp189
(lp190
I12
aF0.42285137072926904
aF0.29626107416701003
aasF0.6666666666666666
(lp191
g190
ag188
asF0.4444444444444444
(lp192
(lp193
I27
aF0.6883233721690473
aF0.728940608118302
aag179
ag181
a(lp194
F24.7
aF0.49963055680478624
aF0.4885442832113719
aag185
ag182
ag188
ag179
a(lp195
I30
aF0.1931844356337864
aF0.43974862483168353
aasF0.3333333333333333
(lp196
g183
ag185
ag195
ag186
ag190
ag195
ag186
ag190
ag181
ag193
ag183
ag185
ag195
ag186
ag181
ag193
ag183
a(lp197
F14.6
aF0.8679709737109557
aF0.3031363667662669
aasss.
