(dp0
S'processed_citemap'
p1
(dp2
I1
F1.0
sI2
F1.0
sI3
F1.0
sI4
F1.0
sI5
F1.0
sI6
F1.0
sI7
F0.5555555555555556
sI8
F0.2222222222222222
sI9
F0.3333333333333333
ss.(dp0
S'processed_citemap'
p1
(dp2
I1
(lp3
ccopy_reg
_reconstructor
p4
(c__main__
Individual
p5
c__builtin__
tuple
p6
((lp7
I12
aF0.8626903632435095
aF0.7873971570789526
aF1.0
tp8
tp9
Rp10
ag4
(g5
g6
((lp11
I15
aF0.5458915783827468
aF0.5045419583098644
aF1.0
tp12
tp13
Rp14
ag4
(g5
g6
((lp15
I23
aF0.8098510160219619
aF0.1844736280968114
aF1.0
tp16
tp17
Rp18
ag4
(g5
g6
((lp19
I10
aF0.8521885935278827
aF0.489490361114548
aF1.0
tp20
tp21
Rp22
ag4
(g5
g6
((lp23
I26
aF0.10189544801599963
aF0.5008484746493213
aF1.0
tp24
tp25
Rp26
ag4
(g5
g6
((lp27
I25
aF0.3058859991434074
aF0.95074362599853
aF1.0
tp28
tp29
Rp30
ag4
(g5
g6
((lp31
I28
aF0.1275309847301982
aF0.12290127489411473
aF1.0
tp32
tp33
Rp34
ag4
(g5
g6
((lp35
I21
aF0.9452342465006595
aF0.4430838139193912
aF1.0
tp36
tp37
Rp38
ag4
(g5
g6
((lp39
I14
aF0.47990491802444557
aF0.12613670881738115
aF1.0
tp40
tp41
Rp42
ag4
(g5
g6
((lp43
I14
aF0.4940988342855148
aF0.5462310172436656
aF1.0
tp44
tp45
Rp46
asI2
(lp47
g4
(g5
g6
((lp48
I27
aF0.6675990812137484
aF0.28338467139820067
aF1.0
tp49
tp50
Rp51
ag4
(g5
g6
((lp52
I29
aF0.22318125101357156
aF0.35137759778103994
aF1.0
tp53
tp54
Rp55
ag4
(g5
g6
((lp56
I15
aF0.8461568892992494
aF0.380742726221895
aF1.0
tp57
tp58
Rp59
ag4
(g5
g6
((lp60
I11
aF0.33432517415704366
aF0.47207207081347313
aF1.0
tp61
tp62
Rp63
ag4
(g5
g6
((lp64
I28
aF0.6322866015315339
aF0.3183972323822004
aF1.0
tp65
tp66
Rp67
ag4
(g5
g6
((lp68
I15
aF0.3417043889928648
aF0.47999170334783636
aF1.0
tp69
tp70
Rp71
ag4
(g5
g6
((lp72
I13
aF0.5178076369729951
aF0.903227167539125
aF1.0
tp73
tp74
Rp75
ag4
(g5
g6
((lp76
I28
aF0.9928997119782782
aF0.3650561098135744
aF1.0
tp77
tp78
Rp79
ag4
(g5
g6
((lp80
I19
aF0.4560350768488145
aF0.9549778433098955
aF1.0
tp81
tp82
Rp83
ag4
(g5
g6
((lp84
I30
aF0.12535982791337663
aF0.8184272154922521
aF1.0
tp85
tp86
Rp87
asI3
(lp88
g4
(g5
g6
((lp89
I21
aF0.4183143766646289
aF0.8433009168730345
aF1.0
tp90
tp91
Rp92
ag4
(g5
g6
((lp93
I10
aF0.14618064578377674
aF0.32316557315202143
aF1.0
tp94
tp95
Rp96
ag4
(g5
g6
((lp97
I21
aF0.9448362064710273
aF0.5171641601412914
aF1.0
tp98
tp99
Rp100
ag4
(g5
g6
((lp101
I15
aF0.24770899999800075
aF0.6321963178514902
aF1.0
tp102
tp103
Rp104
ag4
(g5
g6
((lp105
I17
aF0.7766087816109172
aF0.5693656730328955
aF1.0
tp106
tp107
Rp108
ag4
(g5
g6
((lp109
I14
aF0.8439184177041373
aF0.8968599402571641
aF1.0
tp110
tp111
Rp112
ag4
(g5
g6
((lp113
I17
aF0.2233254767601907
aF0.9799448365903399
aF1.0
tp114
tp115
Rp116
ag4
(g5
g6
((lp117
I27
aF0.4093225875959876
aF0.4118430073903435
aF1.0
tp118
tp119
Rp120
ag4
(g5
g6
((lp121
I26
aF0.9870094538034588
aF0.6101458780887029
aF1.0
tp122
tp123
Rp124
ag4
(g5
g6
((lp125
I11
aF0.44191035724790007
aF0.8499947045640683
aF1.0
tp126
tp127
Rp128
asI4
(lp129
g4
(g5
g6
((lp130
I26
aF0.7442907276978482
aF0.21525414910197743
aF1.0
tp131
tp132
Rp133
ag4
(g5
g6
((lp134
I28
aF0.30138211061305137
aF0.4068200103734897
aF1.0
tp135
tp136
Rp137
ag4
(g5
g6
((lp138
I26
aF0.5068353341548613
aF0.815765160455153
aF1.0
tp139
tp140
Rp141
ag4
(g5
g6
((lp142
I13
aF0.2227489556091789
aF0.6882514730311965
aF1.0
tp143
tp144
Rp145
ag4
(g5
g6
((lp146
I25
aF0.6725449355170808
aF0.20723209459715947
aF1.0
tp147
tp148
Rp149
ag4
(g5
g6
((lp150
I29
aF0.6993354051809567
aF0.6229449695679223
aF1.0
tp151
tp152
Rp153
ag4
(g5
g6
((lp154
I15
aF0.3120662612865534
aF0.9894069646816822
aF1.0
tp155
tp156
Rp157
ag4
(g5
g6
((lp158
I28
aF0.6361162204708972
aF0.5354926867990217
aF1.0
tp159
tp160
Rp161
ag4
(g5
g6
((lp162
I16
aF0.9540751259261468
aF0.29318983039868335
aF1.0
tp163
tp164
Rp165
ag4
(g5
g6
((lp166
I28
aF0.3427123497509377
aF0.7519254659829131
aF1.0
tp167
tp168
Rp169
asI5
(lp170
g4
(g5
g6
((lp171
I11
aF0.2108194688877857
aF0.48933136223609863
aF1.0
tp172
tp173
Rp174
ag4
(g5
g6
((lp175
I10
aF0.33711112588378445
aF0.27545471919995135
aF1.0
tp176
tp177
Rp178
ag4
(g5
g6
((lp179
I10
aF0.6877056964440841
aF0.17854153468668177
aF1.0
tp180
tp181
Rp182
ag4
(g5
g6
((lp183
I14
aF0.20112098170745582
aF0.97069793502025
aF1.0
tp184
tp185
Rp186
ag4
(g5
g6
((lp187
I23
aF0.13782366229660226
aF0.5993146920945994
aF1.0
tp188
tp189
Rp190
ag4
(g5
g6
((lp191
F12.8
aF0.2595302652146623
aF0.1
aF1.0
tp192
tp193
Rp194
ag4
(g5
g6
((lp195
F14.5
aF0.59468677652961
aF0.39135038934388255
aF0.8888888888888888
tp196
tp197
Rp198
ag4
(g5
g6
((lp199
I10
aF0.7018214927707365
aF0.4385877012416849
aF1.0
tp200
tp201
Rp202
ag4
(g5
g6
((lp203
I11
aF0.638673048811316
aF0.46086728564707147
aF1.0
tp204
tp205
Rp206
ag4
(g5
g6
((lp207
I16
aF0.6636156360547695
aF0.6697194695229277
aF0.8888888888888888
tp208
tp209
Rp210
asI6
(lp211
g4
(g5
g6
((lp212
I14
aF0.4041801389498558
aF0.326210555803882
aF0.6666666666666666
tp213
tp214
Rp215
ag4
(g5
g6
((lp216
I26
aF0.3062773617952115
aF0.18002577270545111
aF0.3333333333333333
tp217
tp218
Rp219
ag4
(g5
g6
((lp220
I27
aF0.26430029188333864
aF0.4252845964792693
aF0.3333333333333333
tp221
tp222
Rp223
ag4
(g5
g6
((lp224
I10
aF0.800541246911877
aF0.8547181330326461
aF0.6666666666666666
tp225
tp226
Rp227
ag4
(g5
g6
((lp228
I16
aF0.9717114056322902
aF0.6721574629344479
aF0.3333333333333333
tp229
tp230
Rp231
ag4
(g5
g6
((lp232
I12
aF0.15739866567937735
aF0.41362892719348276
aF1.0
tp233
tp234
Rp235
ag4
(g5
g6
((lp236
I26
aF0.18369169053869425
aF0.5141531534962908
aF0.5555555555555556
tp237
tp238
Rp239
ag4
(g5
g6
((lp240
I26
aF0.9159584401889942
aF0.7280753128375015
aF0.3333333333333333
tp241
tp242
Rp243
ag4
(g5
g6
((lp244
I27
aF0.4019274638513962
aF0.15282796991034242
aF0.2222222222222222
tp245
tp246
Rp247
ag4
(g5
g6
((lp248
I10
aF0.1
aF0.13232359726994913
aF1.0
tp249
tp250
Rp251
asI7
(lp252
g4
(g5
g6
((lp253
I27
aF0.7775268992131333
aF0.6526646772374645
aF0.1111111111111111
tp254
tp255
Rp256
ag4
(g5
g6
((lp257
I19
aF0.21985323650344754
aF0.37490923785108743
aF0.2222222222222222
tp258
tp259
Rp260
ag4
(g5
g6
((lp261
I12
aF0.6010047415511202
aF0.2937483401475885
aF0.2222222222222222
tp262
tp263
Rp264
ag4
(g5
g6
((lp265
I10
aF0.6522231230641553
aF0.6323448747895748
aF0.3333333333333333
tp266
tp267
Rp268
ag4
(g5
g6
((lp269
F10.7
aF0.11262739419922985
aF0.5737822384639368
aF0.5555555555555556
tp270
tp271
Rp272
ag4
(g5
g6
((lp273
I11
aF0.2912997884451635
aF0.4887219407283798
aF0.3333333333333333
tp274
tp275
Rp276
ag4
(g5
g6
((lp277
I17
aF0.37505488391064623
aF0.7885516823230292
aF0.2222222222222222
tp278
tp279
Rp280
ag4
(g5
g6
((lp281
I10
aF0.6931139705217951
aF0.11932595502737639
aF0.3333333333333333
tp282
tp283
Rp284
ag4
(g5
g6
((lp285
I14
aF0.8382335841987304
aF0.6988236163041422
aF0.2222222222222222
tp286
tp287
Rp288
ag4
(g5
g6
((lp289
F18.4
aF0.26961410629435134
aF0.7705125407758702
aF0.2222222222222222
tp290
tp291
Rp292
asI8
(lp293
g4
(g5
g6
((lp294
F12.700000000000001
aF0.1
aI1
aF0.2222222222222222
tp295
tp296
Rp297
ag4
(g5
g6
((lp298
I16
aF0.3797580697640486
aF0.4680153739986337
aF0.1111111111111111
tp299
tp300
Rp301
ag4
(g5
g6
((lp302
I24
aF0.9134593748553232
aF0.3540473769227477
aF0.2222222222222222
tp303
tp304
Rp305
ag4
(g5
g6
((lp306
I10
aF0.1
aI1
aF0.2222222222222222
tp307
tp308
Rp309
ag4
(g5
g6
((lp310
I15
aF0.39587617248952367
aF0.6850340469123671
aF0.1111111111111111
tp311
tp312
Rp313
ag4
(g5
g6
((lp314
I26
aF0.4683261932205549
aF0.7248982486965538
aF0.1111111111111111
tp315
tp316
Rp317
ag4
(g5
g6
((lp318
I28
aF0.9188247933457114
aF0.5131931167029852
aF0.1111111111111111
tp319
tp320
Rp321
ag4
(g5
g6
((lp322
I12
aF0.860140180060621
aF0.7140577481491394
aF0.1111111111111111
tp323
tp324
Rp325
ag4
(g5
g6
((lp326
I19
aF0.4010169907669323
aF0.5861542158701041
aF0.1111111111111111
tp327
tp328
Rp329
ag4
(g5
g6
((lp330
I29
aF0.9186683826771155
aF0.4171736674521801
aF0.1111111111111111
tp331
tp332
Rp333
asI9
(lp334
g4
(g5
g6
((lp335
I14
aF0.47810310249478993
aF0.43358715624287736
aF0.1111111111111111
tp336
tp337
Rp338
ag4
(g5
g6
((lp339
I30
aF0.3286809271092773
aF0.5688778706169185
aF0.1111111111111111
tp340
tp341
Rp342
ag4
(g5
g6
((lp343
F26.9
aF0.1
aF0.1633250150563053
aF0.1111111111111111
tp344
tp345
Rp346
ag4
(g5
g6
((lp347
I13
aF0.28785528186309106
aF0.11563916108818584
aF0.1111111111111111
tp348
tp349
Rp350
ag4
(g5
g6
((lp351
I29
aF0.36971366870539357
aF0.24033597417506233
aF0.1111111111111111
tp352
tp353
Rp354
ag4
(g5
g6
((lp355
I18
aF0.1524447212682102
aF0.19099185218238196
aF0.1111111111111111
tp356
tp357
Rp358
ag4
(g5
g6
((lp359
I21
aF0.9473963798000454
aF0.3010075080663206
aF0.1111111111111111
tp360
tp361
Rp362
ag4
(g5
g6
((lp363
I27
aF0.9752623428101848
aF0.5909447934398155
aI0
tp364
tp365
Rp366
ag4
(g5
g6
((lp367
I10
aF0.3382961722369032
aF0.4856785666188548
aF0.1111111111111111
tp368
tp369
Rp370
ag4
(g5
g6
((lp371
I29
aF0.2796779699567371
aF0.9550241329643636
aF0.3333333333333333
tp372
tp373
Rp374
ass.(dp0
S'processed_citemap'
p1
(dp2
I1
(dp3
F1.0
(lp4
(lp5
I12
aF0.8626903632435095
aF0.7873971570789526
aa(lp6
I15
aF0.5458915783827468
aF0.5045419583098644
aa(lp7
I23
aF0.8098510160219619
aF0.1844736280968114
aa(lp8
I10
aF0.8521885935278827
aF0.489490361114548
aa(lp9
I26
aF0.10189544801599963
aF0.5008484746493213
aa(lp10
I25
aF0.3058859991434074
aF0.95074362599853
aa(lp11
I28
aF0.1275309847301982
aF0.12290127489411473
aa(lp12
I21
aF0.9452342465006595
aF0.4430838139193912
aa(lp13
I14
aF0.47990491802444557
aF0.12613670881738115
aa(lp14
I14
aF0.4940988342855148
aF0.5462310172436656
aag5
a(lp15
F16.6
aF0.5704926281493196
aF0.688445389916172
aag7
a(lp16
F13.3
aF0.9822217895557428
aF0.8651302842068901
aag9
ag10
ag11
ag12
ag13
ag14
ag5
ag6
a(lp17
F12.600000000000001
aI1
aF0.4748515937354323
aa(lp18
F28.5
aF0.1
aF0.9076429787566423
aag9
ag10
ag11
ag12
ag13
ag14
ag5
ag6
ag7
ag8
ag9
a(lp19
F13.200000000000001
aI1
aF0.3850577057975534
aag11
ag12
ag13
ag14
assI2
(dp20
F1.0
(lp21
(lp22
I27
aF0.6675990812137484
aF0.28338467139820067
aa(lp23
I29
aF0.22318125101357156
aF0.35137759778103994
aa(lp24
I15
aF0.8461568892992494
aF0.380742726221895
aa(lp25
I11
aF0.33432517415704366
aF0.47207207081347313
aa(lp26
I28
aF0.6322866015315339
aF0.3183972323822004
aa(lp27
I15
aF0.3417043889928648
aF0.47999170334783636
aa(lp28
I13
aF0.5178076369729951
aF0.903227167539125
aa(lp29
I28
aF0.9928997119782782
aF0.3650561098135744
aa(lp30
I19
aF0.4560350768488145
aF0.9549778433098955
aa(lp31
I30
aF0.12535982791337663
aF0.8184272154922521
aag22
ag23
a(lp32
I10
aF0.6808053150576652
aI1
aag25
a(lp33
I10
aF0.9975980820548911
aF0.143837867720804
aa(lp34
F26.6
aF0.7555588751176252
aF0.6146620573161025
aa(lp35
F21.8
aF0.4612005272338893
aF0.9605215860839498
aa(lp36
I10
aF0.6090386404987767
aF0.5314320372462842
aag30
ag31
ag22
ag23
ag24
ag25
ag26
ag27
a(lp37
I30
aF0.4530257276419495
aF0.1
aa(lp38
F18.200000000000003
aI1
aF0.4550859837103319
aag30
ag31
ag22
ag23
a(lp39
F18.9
aI1
aF0.40869795550136057
aag25
ag26
a(lp40
I10
aF0.3758998016578374
aI1
aag28
a(lp41
I30
aF0.3465573182914752
aF0.1
aag30
ag31
assI3
(dp42
F1.0
(lp43
(lp44
I21
aF0.4183143766646289
aF0.8433009168730345
aa(lp45
I10
aF0.14618064578377674
aF0.32316557315202143
aa(lp46
I21
aF0.9448362064710273
aF0.5171641601412914
aa(lp47
I15
aF0.24770899999800075
aF0.6321963178514902
aa(lp48
I17
aF0.7766087816109172
aF0.5693656730328955
aa(lp49
I14
aF0.8439184177041373
aF0.8968599402571641
aa(lp50
I17
aF0.2233254767601907
aF0.9799448365903399
aa(lp51
I27
aF0.4093225875959876
aF0.4118430073903435
aa(lp52
I26
aF0.9870094538034588
aF0.6101458780887029
aa(lp53
I11
aF0.44191035724790007
aF0.8499947045640683
aa(lp54
F19.8
aF0.711741917104443
aI1
aag45
a(lp55
F17.5
aF0.3472445287146721
aF0.6269793955834064
aag47
ag48
ag49
ag50
ag51
ag52
a(lp56
F23.9
aI1
aF0.5519864506554798
aag44
ag45
ag46
ag47
a(lp57
F16.1
aF0.8908348247875375
aF0.1
aag49
ag50
a(lp58
F24.5
aI1
aF0.7334856814309195
aag52
a(lp59
F16.8
aF0.5713237930060254
aF0.7523358244546444
aag44
a(lp60
I30
aF0.8340000374620623
aF0.701110970507093
aag46
a(lp61
F23.9
aI1
aF0.8393918651456909
aa(lp62
F14.0
aF0.9613533928793171
aF0.5218498115250151
aag49
ag50
a(lp63
I10
aF0.1
aF0.4910597516847772
aag52
ag53
assI4
(dp64
F1.0
(lp65
(lp66
I26
aF0.7442907276978482
aF0.21525414910197743
aa(lp67
I28
aF0.30138211061305137
aF0.4068200103734897
aa(lp68
I26
aF0.5068353341548613
aF0.815765160455153
aa(lp69
I13
aF0.2227489556091789
aF0.6882514730311965
aa(lp70
I25
aF0.6725449355170808
aF0.20723209459715947
aa(lp71
I29
aF0.6993354051809567
aF0.6229449695679223
aa(lp72
I15
aF0.3120662612865534
aF0.9894069646816822
aa(lp73
I28
aF0.6361162204708972
aF0.5354926867990217
aa(lp74
I16
aF0.9540751259261468
aF0.29318983039868335
aa(lp75
I28
aF0.3427123497509377
aF0.7519254659829131
aag66
ag67
a(lp76
I30
aF0.476764171362282
aF0.7925569690481592
aag69
ag70
a(lp77
F28.7
aF0.345635539910093
aF0.4680366083117201
aa(lp78
F17.5
aF0.5810730119681865
aF0.7324947106594165
aag73
a(lp79
F19.6
aF0.1
aF0.7435335752773156
aag75
ag66
ag67
ag68
ag69
ag70
ag71
ag72
a(lp80
F17.6
aF0.9668619615165229
aF0.1
aag74
ag75
ag66
ag67
ag68
ag70
ag71
a(lp81
I10
aF0.4589153400463625
aI1
aag73
a(lp82
F13.7
aF0.4723850944101922
aF0.597965125540703
aag75
asF0.8888888888888888
(lp83
(lp84
I30
aF0.9751020620049872
aF0.1
aassI5
(dp85
F0.8888888888888888
(lp86
(lp87
I25
aF0.24839346682179486
aF0.6080663316189099
aag87
a(lp88
I16
aF0.6636156360547695
aF0.6697194695229277
aa(lp89
F14.5
aF0.59468677652961
aF0.39135038934388255
aa(lp90
F14.200000000000001
aF0.5832765232577819
aF0.1
aag88
asF1.0
(lp91
(lp92
I11
aF0.2108194688877857
aF0.48933136223609863
aa(lp93
I10
aF0.33711112588378445
aF0.27545471919995135
aa(lp94
I14
aF0.20112098170745582
aF0.97069793502025
aa(lp95
I23
aF0.13782366229660226
aF0.5993146920945994
aa(lp96
I10
aF0.7018214927707365
aF0.4385877012416849
aa(lp97
I11
aF0.638673048811316
aF0.46086728564707147
aag92
ag93
a(lp98
I10
aF0.6877056964440841
aF0.17854153468668177
aag94
ag95
a(lp99
F12.8
aF0.2736460615413147
aF0.27660040408594555
aa(lp100
F11.3
aF0.7164121101871676
aI1
aag92
ag93
ag98
ag94
ag95
a(lp101
F12.8
aF0.2595302652146623
aF0.1
aag96
ag97
ag92
ag93
ag98
ag94
ag95
ag101
ag96
a(lp102
I10
aF0.1
aF0.4082043931353468
aasF0.7777777777777778
(lp103
(lp104
I19
aF0.7495028497672048
aF0.8307251166027985
aag88
ag104
ag88
asF0.5555555555555556
(lp105
(lp106
I27
aF0.8881176687572427
aF0.8087175722848358
aassI6
(dp107
F1.0
(lp108
(lp109
I12
aF0.15739866567937735
aF0.41362892719348276
aa(lp110
I10
aF0.1
aF0.13232359726994913
aag110
asF0.1111111111111111
(lp111
(lp112
I28
aF0.8723974630591362
aF0.4558884408533307
aasF0.2222222222222222
(lp113
(lp114
I21
aF0.9091060606748856
aF0.3766540270326808
aa(lp115
I26
aF0.9159584401889942
aF0.7280753128375015
aa(lp116
I27
aF0.4019274638513962
aF0.15282796991034242
aag114
ag115
ag116
ag112
ag114
a(lp117
F23.8
aI1
aF0.6125666808389676
aa(lp118
F21.0
aF0.8232960907953236
aF0.6105431935862685
aag115
ag116
asF0.5555555555555556
(lp119
(lp120
I14
aF0.4041801389498558
aF0.326210555803882
aag120
a(lp121
I26
aF0.18369169053869425
aF0.5141531534962908
aag121
asF0.8888888888888888
(lp122
g109
ag109
asF0.3333333333333333
(lp123
(lp124
I26
aF0.3062773617952115
aF0.18002577270545111
aa(lp125
I27
aF0.26430029188333864
aF0.4252845964792693
aa(lp126
I16
aF0.9717114056322902
aF0.6721574629344479
aag124
ag125
ag126
ag124
ag125
ag126
ag115
ag124
ag125
ag126
asF0.4444444444444444
(lp127
g121
ag121
ag120
asF0.6666666666666666
(lp128
g120
a(lp129
I10
aF0.800541246911877
aF0.8547181330326461
aassI7
(dp130
F0.1111111111111111
(lp131
(lp132
I27
aF0.7775268992131333
aF0.6526646772374645
aa(lp133
I14
aF0.8382335841987304
aF0.6988236163041422
aa(lp134
I28
aF0.5882182716651767
aF0.12761952584734146
aag132
ag134
ag132
a(lp135
F21.9
aF0.711312173148092
aI1
aa(lp136
I17
aF0.3704829188124402
aF0.4006794400613146
aa(lp137
F28.9
aF0.43414393399458295
aI1
aag133
ag134
ag132
a(lp138
F19.799999999999997
aF0.5181032517483075
aF0.1
aasF0.5555555555555556
(lp139
(lp140
F10.7
aF0.11262739419922985
aF0.5737822384639368
aasF0.3333333333333333
(lp141
(lp142
I11
aF0.2912997884451635
aF0.4887219407283798
aa(lp143
I10
aF0.6522231230641553
aF0.6323448747895748
aag142
a(lp144
I10
aF0.6931139705217951
aF0.11932595502737639
aag142
a(lp145
F19.7
aF0.1
aF0.27437318400825095
aasF0.2222222222222222
(lp146
(lp147
I19
aF0.21985323650344754
aF0.37490923785108743
aa(lp148
I12
aF0.6010047415511202
aF0.2937483401475885
aa(lp149
I15
aF0.9907042777390554
aF0.45857014688771314
aag136
a(lp150
I17
aF0.37505488391064623
aF0.7885516823230292
aag144
ag147
ag148
ag136
ag150
ag133
ag148
ag143
ag150
ag147
a(lp151
I10
aF0.8272338418376428
aI1
aag143
ag150
a(lp152
F17.7
aF0.5872763859866099
aF0.2641979196547607
aa(lp153
F18.4
aF0.26961410629435134
aF0.7705125407758702
aassI8
(dp154
I0
(lp155
(lp156
I28
aF0.9188247933457114
aF0.5131931167029852
aa(lp157
I30
aI1
aF0.44879808734522614
aasF0.1111111111111111
(lp158
(lp159
I10
aF0.3208743542467173
aF0.8612937719579558
aa(lp160
I16
aF0.3797580697640486
aF0.4680153739986337
aa(lp161
I24
aF0.9134593748553232
aF0.3540473769227477
aa(lp162
I16
aF0.2329013073307623
aF0.3850728194542029
aa(lp163
I15
aF0.39587617248952367
aF0.6850340469123671
aa(lp164
I26
aF0.4683261932205549
aF0.7248982486965538
aag156
a(lp165
I12
aF0.860140180060621
aF0.7140577481491394
aa(lp166
I19
aF0.4010169907669323
aF0.5861542158701041
aa(lp167
I29
aF0.9186683826771155
aF0.4171736674521801
aag159
ag160
a(lp168
I10
aF0.32098384171473443
aF0.9285073864335193
aa(lp169
F17.0
aF0.5511034005181951
aF0.47233376081529443
aag164
ag156
ag165
ag166
ag167
ag160
ag162
ag163
ag164
ag165
ag166
ag167
a(lp170
F18.1
aF0.1
aF0.44769878313289313
aag160
ag161
ag163
a(lp171
F28.509999999999998
aI1
aF0.21701409115657766
aag165
ag166
ag167
asF0.2222222222222222
(lp172
g161
a(lp173
F12.700000000000001
aF0.1
aI1
aag161
a(lp174
I10
aF0.1
aI1
aassI9
(dp175
I0
(lp176
(lp177
I14
aF0.47810310249478993
aF0.43358715624287736
aa(lp178
I26
aF0.8253390639000368
aF0.22317577019512957
aa(lp179
I30
aF0.5648395744168505
aF0.16340634147425548
aa(lp180
I29
aF0.36971366870539357
aF0.24033597417506233
aa(lp181
I21
aF0.9473963798000454
aF0.3010075080663206
aa(lp182
I27
aF0.9752623428101848
aF0.5909447934398155
aag179
ag180
a(lp183
I18
aF0.1524447212682102
aF0.19099185218238196
aag182
a(lp184
F28.3
aF0.23654019426320438
aF0.1
aa(lp185
I30
aF0.3286809271092773
aF0.5688778706169185
aa(lp186
F10.5
aI1
aF0.1
aag181
ag182
a(lp187
F25.8
aF0.3091747530021798
aF0.36592177085547206
aa(lp188
F26.9
aF0.1
aF0.1633250150563053
aag181
ag182
asF0.1111111111111111
(lp189
(lp190
I13
aF0.28785528186309106
aF0.11563916108818584
aag183
a(lp191
I10
aF0.3382961722369032
aF0.4856785666188548
aa(lp192
I29
aF0.2796779699567371
aF0.9550241329643636
aag177
ag185
ag190
ag181
ag191
ag188
ag190
ag183
ag191
a(lp193
F25.2
aF0.4723789841603422
aI1
aa(lp194
F22.3
aF0.176592663903249
aF0.5343369852220423
aag190
ag180
ag183
ag191
ag192
asF0.3333333333333333
(lp195
g192
asss.(dp0
S'processed_citemap'
p1
F49335.942784786224
s.