(dp0
S'pitsD'
p1
(dp2
I1
F1.0
sI2
F1.0
sI3
F1.0
sI4
F1.0
sI5
F1.0
sI6
F0.8888888888888888
sI7
F0.7777777777777778
sI8
F0.7777777777777778
sI9
F0.4444444444444444
ss.(dp0
S'pitsD'
p1
(dp2
I1
(dp3
F1.0
(lp4
(lp5
I12
aF0.8626903632435095
aF0.7873971570789526
aa(lp6
I15
aF0.5458915783827468
aF0.5045419583098644
aa(lp7
I23
aF0.8098510160219619
aF0.1844736280968114
aa(lp8
I10
aF0.8521885935278827
aF0.489490361114548
aa(lp9
I26
aF0.10189544801599963
aF0.5008484746493213
aa(lp10
I25
aF0.3058859991434074
aF0.95074362599853
aa(lp11
I28
aF0.1275309847301982
aF0.12290127489411473
aa(lp12
I21
aF0.9452342465006595
aF0.4430838139193912
aa(lp13
I14
aF0.47990491802444557
aF0.12613670881738115
aa(lp14
I14
aF0.4940988342855148
aF0.5462310172436656
aa(lp15
I30
aF0.41769023656660087
aF0.42864543232232916
aa(lp16
I10
aF0.758705463291427
aF0.28393278116130755
aa(lp17
F18.4
aF0.5875819645219705
aF0.751788597196906
aag8
a(lp18
I10
aF0.8623167340935782
aF0.1
aag10
ag11
a(lp19
F15.4
aF0.22189084775384932
aF0.1
aa(lp20
I10
aF0.25887839080893266
aF0.3793668812201791
aag14
ag5
a(lp21
I10
aI1
aF0.6996961742736945
aa(lp22
I30
aF0.49905372476523885
aF0.1818881895344312
aag8
ag9
ag10
ag11
a(lp23
F18.7
aF0.1
aI1
aag13
ag14
a(lp24
F17.5
aF0.27969092368391973
aF0.5567671352803871
aag6
ag7
a(lp25
I10
aF0.7975584061625657
aF0.8198817401155624
aag9
ag10
ag11
ag12
a(lp26
F13.8
aF0.8310912010017255
aF0.9427929465241888
aag14
assI2
(dp27
F1.0
(lp28
(lp29
I18
aF0.3036229069428504
aF0.3259830305020964
aa(lp30
I24
aF0.5952491646343937
aF0.8155887833426483
aa(lp31
I20
aF0.5282709485514465
aF0.6037080215581394
aa(lp32
I23
aF0.9194986441913343
aF0.16618006307644007
aa(lp33
I15
aF0.2566993164320121
aF0.9334767557327674
aa(lp34
I23
aF0.5100307661543503
aF0.8605150211961974
aa(lp35
I16
aF0.1981362057610674
aF0.42639062241602355
aa(lp36
I29
aF0.8116543951304935
aF0.9464307284686694
aa(lp37
I28
aF0.6254765695899038
aF0.5587930776095233
aa(lp38
I15
aF0.9116064053267948
aF0.7418109271169415
aag29
ag30
ag31
ag32
ag33
a(lp39
I30
aF0.34437362216919265
aF0.6418859434650024
aa(lp40
I10
aF0.4195862742457482
aF0.3747461230580288
aag36
a(lp41
F25.9
aF0.6382446972678713
aF0.3790281778628828
aag38
ag29
ag30
ag31
ag32
a(lp42
F19.2
aF0.46783585671531236
aF0.9936177508234978
aa(lp43
F17.1
aF0.5305587033799335
aF0.6272071847955779
aa(lp44
F25.799999999999997
aF0.12816979862365652
aF0.569624483362233
aag36
ag37
a(lp45
I30
aI1
aF0.3766456860718149
aa(lp46
F26.9
aI1
aI1
aag30
ag31
a(lp47
F25.2
aF0.3943822496366385
aF0.43467089821004223
aa(lp48
F29.1
aF0.9577336811100448
aF0.9677360957949914
aag34
a(lp49
F27.2
aF0.4345397918117617
aI1
aag36
ag37
ag38
assI3
(dp50
F1.0
(lp51
(lp52
I20
aF0.538832836433017
aF0.5914839125946955
aa(lp53
I12
aF0.9551982760204928
aF0.9372300758064257
aa(lp54
I15
aF0.3148053146455466
aF0.6868968211237995
aa(lp55
I26
aF0.9258462473263487
aF0.8962142369872477
aa(lp56
I29
aF0.34700327342345166
aF0.19959944392644663
aa(lp57
I24
aF0.791776269878828
aF0.7954676477548878
aa(lp58
I27
aF0.9708514021573319
aF0.11180954275548849
aa(lp59
I17
aF0.9821075649724778
aF0.4798030322253969
aa(lp60
I24
aF0.27050997570247326
aF0.22372276276945846
aa(lp61
I14
aF0.5425377293590407
aF0.16760948370571827
aa(lp62
I10
aF0.6822879940136739
aF0.5188629908905578
aa(lp63
I10
aF0.9711503766766904
aI1
aag54
ag55
ag56
ag57
a(lp64
F26.3
aF0.872712505096314
aF0.6674834912364572
aag59
a(lp65
F25.4
aF0.1
aF0.28517569358912914
aa(lp66
F11.9
aF0.8528300393366631
aF0.1
aa(lp67
F18.4
aI1
aF0.9505470641778493
aag53
ag54
ag55
ag56
ag57
ag58
ag59
ag60
a(lp68
F19.8
aI1
aF0.6225916468375314
aag52
ag53
ag54
ag55
ag56
ag57
a(lp69
F11.3
aF0.9236946676388045
aI1
aag59
a(lp70
F28.8
aI1
aI1
aa(lp71
F24.1
aF0.1
aF0.5353715028138915
aassI4
(dp72
F1.0
(lp73
(lp74
I10
aF0.7947288041428711
aF0.15326409654387432
aa(lp75
I18
aF0.9045203345962941
aF0.8799056078150169
aa(lp76
I12
aF0.20068319240550347
aF0.16924414149724992
aa(lp77
I29
aF0.489117219726118
aF0.5697615532296295
aa(lp78
I29
aF0.5916057128298575
aF0.26999052028663784
aa(lp79
I23
aF0.6084310841919461
aF0.3214763823111153
aa(lp80
I21
aF0.37808138882653053
aF0.491782859079133
aa(lp81
I10
aF0.2132685271170987
aF0.7815221511282471
aa(lp82
I29
aF0.8381069877362193
aF0.5844709260892662
aa(lp83
I20
aF0.17773326638481426
aF0.8266075367001584
aag74
ag75
ag76
a(lp84
F12.3
aF0.1
aF0.7200449681304526
aa(lp85
I30
aI1
aF0.23087911801693606
aag79
ag80
ag81
a(lp86
F27.7
aF0.29310226958141655
aF0.6237900322657786
aag83
ag74
ag75
ag76
ag77
ag78
a(lp87
F22.7
aF0.12934410788387402
aF0.43948614771426237
aa(lp88
I30
aF0.9149610590536155
aI1
aag81
ag82
ag83
ag74
ag75
ag76
ag77
ag78
a(lp89
I10
aI1
aF0.5441645543966054
aag80
a(lp90
F15.6
aF0.9441958309451999
aF0.1
aag82
ag83
assI5
(dp91
F0.8888888888888888
(lp92
(lp93
I15
aF0.20205471670666542
aF0.11452350510949666
aa(lp94
I30
aF0.4198342848323896
aF0.7076264629632301
aa(lp95
I28
aF0.5689512738959749
aF0.31955894762880355
aa(lp96
I29
aF0.5728915361551902
aF0.9712437680631106
aa(lp97
F25.9
aF0.566615334278794
aF0.3099553958167467
aa(lp98
I14
aF0.3572603857692368
aF0.12349233203358126
aag93
ag98
a(lp99
I18
aF0.20539177330263814
aF0.12824286484100647
aa(lp100
F28.1
aF0.38094262348199476
aF0.5332630886469378
aag96
a(lp101
F28.8
aF0.4355950927789831
aI1
aag94
ag98
asF0.5555555555555556
(lp102
(lp103
I29
aF0.9927739529016312
aF0.38879219931106757
aasF0.6666666666666666
(lp104
g103
a(lp105
I30
aI1
aF0.6819099077872763
aa(lp106
F21.3
aF0.7355241189048447
aF0.1
aag103
a(lp107
I30
aI1
aI1
aag103
asF0.7777777777777778
(lp108
g96
asF1.0
(lp109
(lp110
I26
aF0.15513002657015473
aF0.44641795826257114
aa(lp111
I26
aF0.2503021119954187
aF0.847179296085444
aa(lp112
I12
aF0.279444420984223
aF0.7137193669582952
aag98
ag99
ag93
ag110
a(lp113
F15.9
aF0.1
aF0.4491138325830699
aag112
ag99
ag100
a(lp114
F14.7
aF0.2501203098432764
aF0.1
aag111
ag93
ag111
ag99
ag100
a(lp115
F14.100000000000001
aF0.1
aF0.6738669756156305
aassI6
(dp116
F0.7777777777777778
(lp117
(lp118
I20
aF0.5151237657545673
aF0.8939462238963487
aa(lp119
F25.8
aF0.2953815319164399
aF0.5738771499548905
aa(lp120
I14
aF0.25001982340279927
aF0.712560846468792
aa(lp121
I29
aF0.2085019075398064
aF0.23342739532876056
aasF0.8888888888888888
(lp122
(lp123
I19
aF0.12595250332257868
aF0.6645987116426431
aag120
a(lp124
F16.0
aF0.35204345020281186
aF0.6756188540646564
aag123
ag119
ag118
ag124
ag123
ag118
a(lp125
F22.7
aF0.17929731893818757
aF0.9040007435816712
aag123
ag119
asF0.5555555555555556
(lp126
(lp127
I28
aF0.5997664061636627
aF0.5472384790186685
aa(lp128
I29
aF0.5109670509269464
aF0.821848580744889
aag127
ag128
a(lp129
I25
aF0.674462052696134
aF0.5360225560163864
aa(lp130
I30
aF0.48531990492523136
aF0.7473166963286203
aag129
asF0.4444444444444444
(lp131
(lp132
I25
aF0.960627182991967
aF0.8973551502173989
aag128
a(lp133
I30
aF0.6251232718131752
aF0.9746777396270736
aag128
a(lp134
F24.439999999999998
aI1
aF0.7624571562001422
aag132
asF0.6666666666666666
(lp135
g118
a(lp136
I20
aF0.6583638109195226
aF0.5190127286200144
aag121
a(lp137
I23
aF0.40982803315487126
aF0.3737989326449387
aag129
ag121
a(lp138
F17.2
aF0.45965094003691775
aF0.7225725739184075
aa(lp139
F26.2
aF0.3968108300407176
aF0.6690194218627044
aasF0.3333333333333333
(lp140
g132
a(lp141
I30
aF0.936975663879355
aF0.9770639880518087
aa(lp142
I30
aF0.5707038650595677
aF0.2118450632206465
aassI7
(dp143
F0.7777777777777778
(lp144
(lp145
I16
aF0.1785523582990335
aF0.6178432615654162
aasF0.2222222222222222
(lp146
(lp147
I13
aF0.9832818857868658
aF0.13254389715178344
aa(lp148
I30
aF0.4356386551811196
aF0.1
aa(lp149
I14
aF0.7205686060528494
aF0.11758895031971564
aasF0.5555555555555556
(lp150
(lp151
I24
aF0.11409741753408524
aF0.8179401450053035
aa(lp152
I29
aF0.13981947341763068
aF0.14961705412919915
aa(lp153
I12
aF0.5014442104367047
aF0.46566082687144283
aa(lp154
I11
aF0.9170421046990495
aF0.7170620081950402
aag149
ag154
a(lp155
F15.4
aF0.6553349532106792
aF0.33415017203136055
aa(lp156
I10
aI1
aI1
aag145
a(lp157
I10
aF0.9536321532385286
aI1
aa(lp158
I24
aF0.9216316751967144
aF0.8448825880500558
aag154
asF0.4444444444444444
(lp159
(lp160
I15
aF0.8900909531551942
aF0.4419170710255619
aag152
ag147
ag153
a(lp161
F21.7
aI1
aF0.47225908800168526
aag152
a(lp162
F28.3
aF0.32371876923144216
aF0.1600855169116466
aag160
ag152
asF0.6666666666666666
(lp163
g160
ag145
ag158
a(lp164
I10
aI1
aF0.7839906527599159
aag145
a(lp165
F13.4
aF0.4362105575945346
aF0.6822220485830878
aag164
a(lp166
F19.5
aF0.1016160255076694
aF0.3783917543513685
aag157
a(lp167
I30
aF0.1381315169861485
aF0.5693742833089231
aa(lp168
F20.2
aF0.1
aF0.18033516008789666
aag167
asF0.3333333333333333
(lp169
(lp170
I21
aF0.9240430415274032
aF0.24522940350759292
aa(lp171
F13.4
aF0.5478120571981762
aF0.1
aag149
assI8
(dp172
F0.4444444444444444
(lp173
(lp174
I29
aF0.8387057805954187
aF0.9177728273581586
aa(lp175
I22
aF0.9171319061824252
aF0.3254651194506457
aa(lp176
I10
aF0.6089297549126332
aI1
aa(lp177
I13
aF0.42890876508629106
aF0.4539562014938099
aa(lp178
I29
aF0.4333959851438899
aF0.30113134931611785
aa(lp179
F12.360000000000001
aF0.5400031343543883
aF0.47731407382296687
aa(lp180
I13
aF0.32594673059524015
aF0.9368788257150816
aa(lp181
I30
aF0.7202538960002791
aF0.6258029874211619
aag178
ag175
a(lp182
I11
aF0.8376574484544514
aF0.6222538873214236
aa(lp183
I14
aF0.4843839485663569
aF0.4848011220581657
aasF0.7777777777777778
(lp184
(lp185
I16
aF0.49754244842259376
aF0.8004218367087419
aasF0.3333333333333333
(lp186
(lp187
I23
aF0.37650588368153937
aF0.16702873575728866
aag175
ag177
ag178
ag183
a(lp188
I29
aF0.8642103241135558
aF0.5781167338163207
aag188
ag175
ag174
a(lp189
I10
aF0.580989935470778
aF0.7778674593461185
aag182
a(lp190
F24.2
aF0.3290877846355593
aF0.8299014291906972
aag174
ag177
a(lp191
F14.6
aF0.8378867704613457
aF0.8179436453124678
aasF0.2222222222222222
(lp192
g182
a(lp193
I30
aF0.6153202162025168
aF0.24917442921188032
aasF0.5555555555555556
(lp194
g188
ag180
a(lp195
F27.2
aF0.8564737834227187
aF0.7870476378588958
aag180
ag185
ag182
a(lp196
F21.3
aF0.37776386473430823
aF0.5088834868256624
aag195
ag180
ag185
assI9
(dp197
F0.2222222222222222
(lp198
(lp199
I21
aF0.30898996840540327
aF0.5068134708035766
aa(lp200
I21
aF0.19209173585463613
aF0.3681567105469239
aa(lp201
I29
aF0.41602512753252974
aF0.6246784989995715
aa(lp202
I10
aF0.9105039756815487
aF0.9403338250841933
aa(lp203
I26
aF0.23980037741397037
aF0.8271998012401732
aa(lp204
I29
aF0.22296219728834205
aF0.42156537898393154
aa(lp205
F20.0
aF0.3116144321801596
aF0.18804608596185995
aag200
ag201
a(lp206
I13
aF0.43079383376933766
aF0.49381779879628873
aa(lp207
F20.6
aF0.787393174416418
aF0.3911355125112984
aa(lp208
F23.4
aF0.6121940668418631
aF0.2335388249712389
aa(lp209
I18
aF0.5200417192844465
aF0.26842883834255515
aag202
ag208
a(lp210
F18.6
aF0.4524031567729318
aF0.5312038667021941
aag204
a(lp211
I20
aF0.3934431949656966
aF0.28510581814151686
aag201
a(lp212
F29.7
aF0.1
aF0.47970100366771645
aag202
ag208
ag203
ag204
a(lp213
F25.62
aF0.1
aF0.9046795330670566
aasF0.1111111111111111
(lp214
(lp215
I15
aF0.6306398002418925
aF0.21157026059444511
aag209
ag211
asF0.3333333333333333
(lp216
g211
ag203
ag204
ag199
ag200
ag201
a(lp217
I30
aF0.3084751552463214
aI1
aag199
ag200
a(lp218
F26.08
aF0.5809374639337861
aF0.8683814121911152
aasF0.4444444444444444
(lp219
g206
ag206
asss.
