(dp0
S'pitsB'
p1
(dp2
I1
F1.0
sI2
F1.0
sI3
F1.0
sI4
F1.0
sI5
F0.8888888888888888
sI6
F0.6666666666666666
sI7
F0.5555555555555556
sI8
F0.6666666666666666
sI9
F0.5555555555555556
ss.(dp0
S'pitsB'
p1
(dp2
I1
(lp3
ccopy_reg
_reconstructor
p4
(c__main__
Individual
p5
c__builtin__
tuple
p6
((lp7
I12
aF0.8626903632435095
aF0.7873971570789526
aF1.0
tp8
tp9
Rp10
ag4
(g5
g6
((lp11
I15
aF0.5458915783827468
aF0.5045419583098644
aF1.0
tp12
tp13
Rp14
ag4
(g5
g6
((lp15
I23
aF0.8098510160219619
aF0.1844736280968114
aF1.0
tp16
tp17
Rp18
ag4
(g5
g6
((lp19
I10
aF0.8521885935278827
aF0.489490361114548
aF1.0
tp20
tp21
Rp22
ag4
(g5
g6
((lp23
I26
aF0.10189544801599963
aF0.5008484746493213
aF1.0
tp24
tp25
Rp26
ag4
(g5
g6
((lp27
I25
aF0.3058859991434074
aF0.95074362599853
aF1.0
tp28
tp29
Rp30
ag4
(g5
g6
((lp31
I28
aF0.1275309847301982
aF0.12290127489411473
aF1.0
tp32
tp33
Rp34
ag4
(g5
g6
((lp35
I21
aF0.9452342465006595
aF0.4430838139193912
aF1.0
tp36
tp37
Rp38
ag4
(g5
g6
((lp39
I14
aF0.47990491802444557
aF0.12613670881738115
aF1.0
tp40
tp41
Rp42
ag4
(g5
g6
((lp43
I14
aF0.4940988342855148
aF0.5462310172436656
aF1.0
tp44
tp45
Rp46
asI2
(lp47
g4
(g5
g6
((lp48
I18
aF0.8301427850039883
aF0.4340318497300091
aF1.0
tp49
tp50
Rp51
ag4
(g5
g6
((lp52
I14
aF0.4311058737074911
aF0.42284436940962833
aF1.0
tp53
tp54
Rp55
ag4
(g5
g6
((lp56
I12
aF0.9280089704248159
aF0.7973323184053124
aF1.0
tp57
tp58
Rp59
ag4
(g5
g6
((lp60
I10
aF0.8122779380120884
aF0.19713496699999394
aF1.0
tp61
tp62
Rp63
ag4
(g5
g6
((lp64
I26
aF0.8474408290681703
aF0.8000405033945722
aF1.0
tp65
tp66
Rp67
ag4
(g5
g6
((lp68
I27
aF0.2583698261200753
aF0.7851089131920816
aF1.0
tp69
tp70
Rp71
ag4
(g5
g6
((lp72
I13
aF0.48023104805576056
aF0.6821376167159995
aF1.0
tp73
tp74
Rp75
ag4
(g5
g6
((lp76
I20
aF0.167435052810409
aF0.9402122808726961
aF1.0
tp77
tp78
Rp79
ag4
(g5
g6
((lp80
I11
aF0.9464173262912904
aF0.8134673748114127
aF1.0
tp81
tp82
Rp83
ag4
(g5
g6
((lp84
I29
aF0.39342931156318417
aF0.9285627331377702
aF1.0
tp85
tp86
Rp87
asI3
(lp88
g4
(g5
g6
((lp89
I24
aF0.18028628230749477
aF0.5657779983837226
aF1.0
tp90
tp91
Rp92
ag4
(g5
g6
((lp93
I18
aF0.5649183877179367
aF0.9618683902132662
aF1.0
tp94
tp95
Rp96
ag4
(g5
g6
((lp97
I26
aF0.5829476549549911
aF0.22546768345943907
aF1.0
tp98
tp99
Rp100
ag4
(g5
g6
((lp101
I28
aF0.7349316445116617
aF0.3012579144458888
aF1.0
tp102
tp103
Rp104
ag4
(g5
g6
((lp105
I16
aF0.8929253584773065
aF0.6200358515827761
aF1.0
tp106
tp107
Rp108
ag4
(g5
g6
((lp109
I15
aF0.2532944108327606
aF0.8449653958170172
aF1.0
tp110
tp111
Rp112
ag4
(g5
g6
((lp113
I22
aF0.29922032511746904
aF0.220153517925337
aF1.0
tp114
tp115
Rp116
ag4
(g5
g6
((lp117
I10
aF0.17648759826187282
aF0.49700572393736453
aF1.0
tp118
tp119
Rp120
ag4
(g5
g6
((lp121
I24
aF0.21517231191176645
aF0.9982768503695825
aF1.0
tp122
tp123
Rp124
ag4
(g5
g6
((lp125
I26
aF0.9844315376609251
aF0.17763251432990018
aF1.0
tp126
tp127
Rp128
asI4
(lp129
g4
(g5
g6
((lp130
I21
aF0.3770985732701613
aF0.9867733764237825
aF1.0
tp131
tp132
Rp133
ag4
(g5
g6
((lp134
I17
aF0.8229943710782858
aF0.8053115997056194
aF1.0
tp135
tp136
Rp137
ag4
(g5
g6
((lp138
I20
aF0.6133672229578138
aF0.9414259637567421
aF1.0
tp139
tp140
Rp141
ag4
(g5
g6
((lp142
I27
aF0.6338039781868059
aF0.6831420007562781
aF1.0
tp143
tp144
Rp145
ag4
(g5
g6
((lp146
I15
aF0.5499794741230962
aF0.46698978709492556
aF1.0
tp147
tp148
Rp149
ag4
(g5
g6
((lp150
I29
aF0.563148306836663
aF0.7909901555918127
aF1.0
tp151
tp152
Rp153
ag4
(g5
g6
((lp154
I11
aF0.11479799469488368
aF0.6557724347252013
aF1.0
tp155
tp156
Rp157
ag4
(g5
g6
((lp158
I16
aF0.6055567290317495
aF0.3250355723750481
aF1.0
tp159
tp160
Rp161
ag4
(g5
g6
((lp162
I23
aF0.7463826261763995
aF0.2266199782423664
aF0.8888888888888888
tp163
tp164
Rp165
ag4
(g5
g6
((lp166
I30
aF0.5263344700249429
aF0.2822679718574955
aF0.8888888888888888
tp167
tp168
Rp169
asI5
(lp170
g4
(g5
g6
((lp171
I16
aF0.5041963630004258
aF0.32473394184011567
aF0.8888888888888888
tp172
tp173
Rp174
ag4
(g5
g6
((lp175
I17
aF0.3189083623881578
aF0.27714955287074805
aF0.8888888888888888
tp176
tp177
Rp178
ag4
(g5
g6
((lp179
I18
aF0.5901804598301322
aF0.26728959142548914
aF0.6666666666666666
tp180
tp181
Rp182
ag4
(g5
g6
((lp183
I20
aF0.31518285614481045
aF0.5820276033825528
aF0.7777777777777778
tp184
tp185
Rp186
ag4
(g5
g6
((lp187
I16
aF0.3748476934707716
aF0.4284355436287077
aF0.8888888888888888
tp188
tp189
Rp190
ag4
(g5
g6
((lp191
I14
aF0.9746813351543339
aF0.3394876868044288
aF0.6666666666666666
tp192
tp193
Rp194
ag4
(g5
g6
((lp195
I21
aF0.5803242138464512
aF0.7971469188811725
aF0.7777777777777778
tp196
tp197
Rp198
ag4
(g5
g6
((lp199
I16
aF0.26981017577240807
aF0.9888486664239611
aF0.8888888888888888
tp200
tp201
Rp202
ag4
(g5
g6
((lp203
I22
aF0.49830866776529326
aF0.1776153102867133
aF0.7777777777777778
tp204
tp205
Rp206
ag4
(g5
g6
((lp207
I20
aF0.8032341458053109
aF0.18758652933002357
aF0.6666666666666666
tp208
tp209
Rp210
asI6
(lp211
g4
(g5
g6
((lp212
F16.9
aF0.5960752889587387
aF0.33013422539537957
aF0.4444444444444444
tp213
tp214
Rp215
ag4
(g5
g6
((lp216
I21
aF0.5740599128192625
aF0.6720506567736768
aF0.4444444444444444
tp217
tp218
Rp219
ag4
(g5
g6
((lp220
I10
aF0.493475052779863
aF0.12333005164573935
aF0.5555555555555556
tp221
tp222
Rp223
ag4
(g5
g6
((lp224
I12
aF0.6364579602207372
aF0.3749066692569699
aF0.5555555555555556
tp225
tp226
Rp227
ag4
(g5
g6
((lp228
I15
aF0.7912428212416489
aF0.8211535730211106
aF0.5555555555555556
tp229
tp230
Rp231
ag4
(g5
g6
((lp232
I10
aF0.7111762241558298
aF0.6783812444508259
aF0.6666666666666666
tp233
tp234
Rp235
ag4
(g5
g6
((lp236
I14
aF0.5381569821320644
aF0.6467357644071661
aF0.5555555555555556
tp237
tp238
Rp239
ag4
(g5
g6
((lp240
I21
aF0.584043056733486
aF0.1000080186267639
aF0.4444444444444444
tp241
tp242
Rp243
ag4
(g5
g6
((lp244
F14.799999999999999
aF0.7519029759748571
aF0.17225261917807716
aF0.5555555555555556
tp245
tp246
Rp247
ag4
(g5
g6
((lp248
I22
aF0.7335532908673654
aF0.7571929389331243
aF0.5555555555555556
tp249
tp250
Rp251
asI7
(lp252
g4
(g5
g6
((lp253
I10
aF0.804202657696865
aF0.5308626282549058
aF0.4444444444444444
tp254
tp255
Rp256
ag4
(g5
g6
((lp257
I29
aF0.2138648146352357
aF0.2569547370186693
aF0.3333333333333333
tp258
tp259
Rp260
ag4
(g5
g6
((lp261
I24
aF0.342605111854154
aF0.7367805461454909
aF0.5555555555555556
tp262
tp263
Rp264
ag4
(g5
g6
((lp265
I11
aF0.21139917452973017
aF0.31509543720065347
aF0.4444444444444444
tp266
tp267
Rp268
ag4
(g5
g6
((lp269
I30
aF0.1
aF0.41835958220094444
aF0.5555555555555556
tp270
tp271
Rp272
ag4
(g5
g6
((lp273
I17
aF0.501669879101257
aF0.965151007816832
aF0.3333333333333333
tp274
tp275
Rp276
ag4
(g5
g6
((lp277
I10
aF0.47724587690391296
aF0.8033372057585637
aF0.4444444444444444
tp278
tp279
Rp280
ag4
(g5
g6
((lp281
F14.899999999999999
aF0.36590053983094084
aF0.6434778825886249
aF0.3333333333333333
tp282
tp283
Rp284
ag4
(g5
g6
((lp285
I16
aF0.6993339553907458
aF0.671563071449252
aF0.4444444444444444
tp286
tp287
Rp288
ag4
(g5
g6
((lp289
I12
aF0.9169690850155253
aF0.734572657556439
aF0.5555555555555556
tp290
tp291
Rp292
asI8
(lp293
g4
(g5
g6
((lp294
I26
aF0.22532678893121297
aF0.118477464609022
aF0.3333333333333333
tp295
tp296
Rp297
ag4
(g5
g6
((lp298
I22
aF0.42241610108097816
aF0.26669032042373664
aF0.3333333333333333
tp299
tp300
Rp301
ag4
(g5
g6
((lp302
I14
aF0.4322216785787494
aF0.6745779791202037
aF0.5555555555555556
tp303
tp304
Rp305
ag4
(g5
g6
((lp306
I11
aF0.9557693842190017
aF0.4608930889740426
aF0.3333333333333333
tp307
tp308
Rp309
ag4
(g5
g6
((lp310
I26
aF0.8322043007469518
aF0.6039700944222416
aF0.3333333333333333
tp311
tp312
Rp313
ag4
(g5
g6
((lp314
I29
aF0.45012987362724133
aF0.618751726720238
aF0.4444444444444444
tp315
tp316
Rp317
ag4
(g5
g6
((lp318
I25
aF0.14576884765140816
aF0.9420702489284417
aF0.3333333333333333
tp319
tp320
Rp321
ag4
(g5
g6
((lp322
I10
aF0.45299113234278976
aF0.7689592097523134
aF0.4444444444444444
tp323
tp324
Rp325
ag4
(g5
g6
((lp326
I22
aF0.4294913685377474
aF0.2781044972201599
aF0.6666666666666666
tp327
tp328
Rp329
ag4
(g5
g6
((lp330
I24
aF0.8013762247550495
aF0.6814634814469493
aF0.3333333333333333
tp331
tp332
Rp333
asI9
(lp334
g4
(g5
g6
((lp335
I17
aF0.4208271532548278
aF0.1887183618834517
aF0.5555555555555556
tp336
tp337
Rp338
ag4
(g5
g6
((lp339
I28
aF0.9759325005863866
aF0.7749842284120809
aF0.2222222222222222
tp340
tp341
Rp342
ag4
(g5
g6
((lp343
I11
aF0.42575229622678623
aF0.6138624117434017
aF0.2222222222222222
tp344
tp345
Rp346
ag4
(g5
g6
((lp347
I10
aI1
aF0.11425144055822795
aF0.3333333333333333
tp348
tp349
Rp350
ag4
(g5
g6
((lp351
F10.7
aF0.8979222560026914
aF0.1
aF0.5555555555555556
tp352
tp353
Rp354
ag4
(g5
g6
((lp355
I10
aF0.6249087164889133
aF0.5656128395823912
aF0.4444444444444444
tp356
tp357
Rp358
ag4
(g5
g6
((lp359
I22
aF0.22238821601525094
aF0.698342572337379
aF0.2222222222222222
tp360
tp361
Rp362
ag4
(g5
g6
((lp363
I10
aF0.6002552075967474
aF0.6835394083346211
aF0.3333333333333333
tp364
tp365
Rp366
ag4
(g5
g6
((lp367
I18
aF0.11519880486228956
aF0.17470730165466816
aF0.3333333333333333
tp368
tp369
Rp370
ag4
(g5
g6
((lp371
I13
aF0.9039526485121989
aF0.3127226144828672
aF0.4444444444444444
tp372
tp373
Rp374
ass.(dp0
S'pitsB'
p1
(dp2
I1
(dp3
F1.0
(lp4
(lp5
I12
aF0.8626903632435095
aF0.7873971570789526
aa(lp6
I15
aF0.5458915783827468
aF0.5045419583098644
aa(lp7
I23
aF0.8098510160219619
aF0.1844736280968114
aa(lp8
I10
aF0.8521885935278827
aF0.489490361114548
aa(lp9
I26
aF0.10189544801599963
aF0.5008484746493213
aa(lp10
I25
aF0.3058859991434074
aF0.95074362599853
aa(lp11
I28
aF0.1275309847301982
aF0.12290127489411473
aa(lp12
I21
aF0.9452342465006595
aF0.4430838139193912
aa(lp13
I14
aF0.47990491802444557
aF0.12613670881738115
aa(lp14
I14
aF0.4940988342855148
aF0.5462310172436656
aag5
ag6
ag7
ag8
ag9
ag10
a(lp15
F16.1
aF0.1
aF0.347599101404138
aa(lp16
I10
aF0.3248650511672339
aF0.7577721307126624
aag13
a(lp17
F21.3
aF0.6036722966627518
aF0.2635226180981714
aag5
ag6
ag7
ag8
ag9
ag10
a(lp18
I30
aF0.3485575119457111
aF0.1
aag12
ag13
ag14
a(lp19
I10
aF0.30932722793806433
aF0.7702788483928027
aag6
ag7
ag8
a(lp20
F23.799999999999997
aF0.24743708097954167
aF0.5439662134973792
aag10
ag11
ag12
a(lp21
F26.0
aF0.1118311893987481
aF0.7949144905477203
aa(lp22
I10
aF0.8621243349106311
aF0.7835563770129471
aassI2
(dp23
F1.0
(lp24
(lp25
I18
aF0.8301427850039883
aF0.4340318497300091
aa(lp26
I14
aF0.4311058737074911
aF0.42284436940962833
aa(lp27
I12
aF0.9280089704248159
aF0.7973323184053124
aa(lp28
I10
aF0.8122779380120884
aF0.19713496699999394
aa(lp29
I26
aF0.8474408290681703
aF0.8000405033945722
aa(lp30
I27
aF0.2583698261200753
aF0.7851089131920816
aa(lp31
I13
aF0.48023104805576056
aF0.6821376167159995
aa(lp32
I20
aF0.167435052810409
aF0.9402122808726961
aa(lp33
I11
aF0.9464173262912904
aF0.8134673748114127
aa(lp34
I29
aF0.39342931156318417
aF0.9285627331377702
aag25
ag26
ag27
a(lp35
F10.9
aF0.1
aF0.8576802601976953
aag29
ag30
ag31
a(lp36
F27.6
aF0.3124175888742749
aF0.5084245871540473
aag33
ag34
ag25
a(lp37
I30
aF0.6628712544402129
aI1
aag27
ag28
ag29
ag30
ag31
a(lp38
F12.7
aI1
aI1
aag33
ag34
ag25
ag26
ag27
ag28
ag29
ag30
ag31
ag32
ag33
ag34
assI3
(dp39
F1.0
(lp40
(lp41
I24
aF0.18028628230749477
aF0.5657779983837226
aa(lp42
I18
aF0.5649183877179367
aF0.9618683902132662
aa(lp43
I26
aF0.5829476549549911
aF0.22546768345943907
aa(lp44
I28
aF0.7349316445116617
aF0.3012579144458888
aa(lp45
I16
aF0.8929253584773065
aF0.6200358515827761
aa(lp46
I15
aF0.2532944108327606
aF0.8449653958170172
aa(lp47
I22
aF0.29922032511746904
aF0.220153517925337
aa(lp48
I10
aF0.17648759826187282
aF0.49700572393736453
aa(lp49
I24
aF0.21517231191176645
aF0.9982768503695825
aa(lp50
I26
aF0.9844315376609251
aF0.17763251432990018
aag41
ag42
ag43
ag44
a(lp51
F19.8
aF0.595879805659381
aF0.8456956319439299
aa(lp52
F21.7
aF0.7860373344793478
aF0.49668909264919503
aa(lp53
I10
aF0.38112936969759137
aI1
aag48
a(lp54
F22.6
aF0.38982223711625075
aF0.9117390702883904
aag50
ag41
ag42
ag43
ag44
a(lp55
F24.6
aF0.7269887975306678
aF0.7185989311670005
aag46
a(lp56
F16.4
aF0.1
aF0.7691186310436932
aag48
a(lp57
F27.4
aI1
aF0.1
aa(lp58
F29.5
aI1
aF0.42120428464565707
aag41
ag42
ag43
ag44
a(lp59
F29.4
aF0.992374384641919
aF0.1
aag46
ag47
ag48
a(lp60
F16.0
aI1
aF0.5865512331920989
aag50
assI4
(dp61
F1.0
(lp62
(lp63
I21
aF0.3770985732701613
aF0.9867733764237825
aa(lp64
I17
aF0.8229943710782858
aF0.8053115997056194
aa(lp65
I20
aF0.6133672229578138
aF0.9414259637567421
aa(lp66
I27
aF0.6338039781868059
aF0.6831420007562781
aa(lp67
I15
aF0.5499794741230962
aF0.46698978709492556
aa(lp68
I29
aF0.563148306836663
aF0.7909901555918127
aa(lp69
I11
aF0.11479799469488368
aF0.6557724347252013
aa(lp70
I16
aF0.6055567290317495
aF0.3250355723750481
aag63
ag65
ag67
ag68
ag69
a(lp71
F10.5
aF0.3936500761388686
aI1
aa(lp72
F22.0
aF0.4175461990990603
aF0.38147106783038665
aag65
ag67
ag69
ag70
ag63
ag65
ag66
ag67
ag68
ag69
asF0.7777777777777778
(lp73
(lp74
I30
aF0.869865584060749
aF0.1
aasF0.8888888888888888
(lp75
(lp76
I23
aF0.7463826261763995
aF0.2266199782423664
aa(lp77
I30
aF0.5263344700249429
aF0.2822679718574955
aag64
ag66
ag70
ag76
ag77
a(lp78
F20.5
aF0.663073662045174
aI1
aa(lp79
F25.1
aF0.42775634202368795
aF0.35115888775037274
aag76
ag64
ag70
a(lp80
F26.2
aF0.5576809610884179
aF0.3595168816246269
aag77
assI5
(dp81
F0.8888888888888888
(lp82
(lp83
I16
aF0.5041963630004258
aF0.32473394184011567
aa(lp84
I17
aF0.3189083623881578
aF0.27714955287074805
aa(lp85
I16
aF0.26981017577240807
aF0.9888486664239611
aa(lp86
F14.6
aF0.3760082948660879
aF0.6078225470072033
aa(lp87
I16
aF0.3748476934707716
aF0.4284355436287077
aag85
asF0.7777777777777778
(lp88
(lp89
I20
aF0.31518285614481045
aF0.5820276033825528
aag87
a(lp90
I21
aF0.5803242138464512
aF0.7971469188811725
aa(lp91
I22
aF0.49830866776529326
aF0.1776153102867133
aag84
ag89
ag83
ag84
ag89
ag85
ag84
ag89
asF0.6666666666666666
(lp92
(lp93
I18
aF0.5901804598301322
aF0.26728959142548914
aa(lp94
I14
aF0.9746813351543339
aF0.3394876868044288
aa(lp95
I20
aF0.8032341458053109
aF0.18758652933002357
aag83
ag93
ag87
ag91
ag93
ag94
a(lp96
F20.0
aF0.7297078834164564
aF0.5798757152867009
aag91
ag95
a(lp97
F21.5
aF0.7157606735941271
aF0.1976156216166648
aag93
ag87
ag94
ag90
asF0.5555555555555556
(lp98
g94
a(lp99
F18.8
aF0.5359572392611075
aF0.1
aag95
ag91
ag95
assI6
(dp100
F0.4444444444444444
(lp101
(lp102
I21
aF0.5740599128192625
aF0.6720506567736768
aa(lp103
I19
aF0.9561642723189632
aF0.5316477871941209
aa(lp104
I12
aF0.6364579602207372
aF0.3749066692569699
aa(lp105
I15
aF0.7912428212416489
aF0.8211535730211106
aa(lp106
I14
aF0.5381569821320644
aF0.6467357644071661
aa(lp107
I25
aF0.8068477085560867
aF0.828170194260082
aa(lp108
F16.9
aF0.5960752889587387
aF0.33013422539537957
aa(lp109
F29.7
aF0.6375718729317683
aF0.75276152755912
aag103
a(lp110
I10
aF0.7111762241558298
aF0.6783812444508259
aa(lp111
F14.1
aF0.6877640526028421
aF0.4245907479858403
aag107
a(lp112
I30
aF0.7414578769252522
aF0.3809054374067634
aa(lp113
F29.83
aF0.7262770539181229
aF0.5843972809212695
aag102
ag103
a(lp114
F24.87
aF0.7251307283096885
aF0.5961045941950933
aa(lp115
F15.5
aF0.9290630633515663
aF0.2943450852078383
aa(lp116
I21
aF0.584043056733486
aF0.1000080186267639
aa(lp117
I22
aF0.7335532908673654
aF0.7571929389331243
aag108
ag102
ag105
ag116
ag117
asF0.3333333333333333
(lp118
(lp119
I25
aF0.5699662432110589
aF0.48361885748645694
aag116
a(lp120
F20.3
aF0.47239769209981397
aF0.1
aag116
asF0.6666666666666666
(lp121
g110
asF0.5555555555555556
(lp122
g110
ag117
ag105
ag106
a(lp123
F14.799999999999999
aF0.7519029759748571
aF0.17225261917807716
aa(lp124
I10
aF0.493475052779863
aF0.12333005164573935
aag104
ag110
ag106
ag123
assI7
(dp125
F0.4444444444444444
(lp126
(lp127
I10
aF0.6250556204226658
aF0.4176054669150111
aa(lp128
I10
aF0.47724587690391296
aF0.8033372057585637
aa(lp129
I16
aF0.6993339553907458
aF0.671563071449252
aa(lp130
I10
aF0.804202657696865
aF0.5308626282549058
aa(lp131
I24
aF0.342605111854154
aF0.7367805461454909
aa(lp132
I10
aF0.8093763681470658
aF0.5477594823931986
aag130
ag131
ag128
a(lp133
I12
aF0.9169690850155253
aF0.734572657556439
aa(lp134
I11
aF0.21139917452973017
aF0.31509543720065347
aa(lp135
I30
aF0.1
aF0.41835958220094444
aag128
asF0.3333333333333333
(lp136
g130
a(lp137
I29
aF0.2138648146352357
aF0.2569547370186693
aag134
a(lp138
I17
aF0.501669879101257
aF0.965151007816832
aag137
ag134
ag127
ag138
a(lp139
F14.899999999999999
aF0.36590053983094084
aF0.6434778825886249
aag134
ag138
ag137
ag131
ag138
a(lp140
I10
aF0.7584147922747928
aI1
aa(lp141
F25.0
aF0.1
aF0.1
aasF0.2222222222222222
(lp142
(lp143
I12
aF0.9626493092827458
aF0.8574973792752342
aag129
ag133
ag137
ag139
a(lp144
F19.799999999999997
aF0.3829973413690817
aF0.7567475440294128
aa(lp145
F24.1
aF0.19676801309709485
aF0.14368507557788146
aag129
asF0.5555555555555556
(lp146
g131
ag133
ag135
assI8
(dp147
F0.2222222222222222
(lp148
(lp149
I26
aF0.22532678893121297
aF0.118477464609022
aa(lp150
I14
aF0.4322216785787494
aF0.6745779791202037
aa(lp151
I11
aF0.9557693842190017
aF0.4608930889740426
aa(lp152
I25
aF0.14576884765140816
aF0.9420702489284417
aa(lp153
I22
aF0.4294913685377474
aF0.2781044972201599
aa(lp154
I24
aF0.8013762247550495
aF0.6814634814469493
aa(lp155
F11.2
aF0.570184197083585
aF0.7783269781905039
aa(lp156
I30
aF0.6728392603588481
aF0.14863287282193766
aa(lp157
I26
aF0.8322043007469518
aF0.6039700944222416
aa(lp158
I10
aF0.45299113234278976
aF0.7689592097523134
aag154
ag151
a(lp159
I29
aF0.45012987362724133
aF0.618751726720238
aag152
a(lp160
F13.3
aF0.376531119682886
aI1
aa(lp161
F24.6
aF0.5718849013948404
aF0.321618805463489
aag157
ag158
ag154
asF0.5555555555555556
(lp162
g150
asF0.3333333333333333
(lp163
(lp164
I22
aF0.42241610108097816
aF0.26669032042373664
aag157
ag158
a(lp165
I30
aF0.4287273517439732
aF0.2671635041902344
aag150
ag152
ag149
a(lp166
F23.4
aF0.1
aF0.1
aag157
ag154
ag164
ag151
ag159
ag152
asF0.6666666666666666
(lp167
g153
asF0.4444444444444444
(lp168
g159
ag159
ag158
a(lp169
F23.4
aF0.4569937778756812
aF0.9042730878077649
aag153
assI9
(dp170
F0.4444444444444444
(lp171
(lp172
I10
aF0.6249087164889133
aF0.5656128395823912
aag172
a(lp173
I13
aF0.9039526485121989
aF0.3127226144828672
aag173
asF0.2222222222222222
(lp174
(lp175
I17
aF0.4208271532548278
aF0.1887183618834517
aa(lp176
I28
aF0.9759325005863866
aF0.7749842284120809
aa(lp177
I11
aF0.42575229622678623
aF0.6138624117434017
aa(lp178
I16
aF0.6003977800979898
aF0.23265087606943233
aa(lp179
I22
aF0.22238821601525094
aF0.698342572337379
aa(lp180
I30
aF0.28347339029387164
aF0.8491430880461616
aa(lp181
I18
aF0.11519880486228956
aF0.17470730165466816
aag173
ag177
ag179
a(lp182
F27.9
aF0.495961798183818
aF0.9051933049355659
aag181
ag173
a(lp183
F28.0
aF0.8586750783771686
aF0.6728545324661616
aag177
a(lp184
I10
aI1
aF0.11425144055822795
aa(lp185
I10
aF0.4573981133328876
aF0.4197132739453635
aag175
ag176
a(lp186
F18.4
aF0.1
aF0.8285770661907692
aag172
a(lp187
I10
aF0.8176426515518951
aF0.9909479853967346
aag181
asF0.5555555555555556
(lp188
g175
a(lp189
F10.7
aF0.8979222560026914
aF0.1
aasF0.3333333333333333
(lp190
g184
ag185
ag175
a(lp191
I10
aF0.6002552075967474
aF0.6835394083346211
aag181
ag184
asF0.1111111111111111
(lp192
g185
a(lp193
I10
aF0.1
aF0.36517274361669955
aag172
a(lp194
I10
aF0.9630965631690731
aF0.652415816401982
aag179
asss.