(dp0
S'pitsE'
p1
(dp2
I1
F1.0
sI2
F1.0
sI3
F1.0
sI4
F1.0
sI5
F0.8888888888888888
sI6
F0.6666666666666666
sI7
F0.5555555555555556
sI8
F0.7777777777777778
sI9
F0.7777777777777778
ss.(dp0
S'pitsE'
p1
(dp2
I1
(dp3
F1.0
(lp4
(lp5
I12
aF0.8626903632435095
aF0.7873971570789526
aa(lp6
I15
aF0.5458915783827468
aF0.5045419583098644
aa(lp7
I23
aF0.8098510160219619
aF0.1844736280968114
aa(lp8
I10
aF0.8521885935278827
aF0.489490361114548
aa(lp9
I26
aF0.10189544801599963
aF0.5008484746493213
aa(lp10
I25
aF0.3058859991434074
aF0.95074362599853
aa(lp11
I28
aF0.1275309847301982
aF0.12290127489411473
aa(lp12
I21
aF0.9452342465006595
aF0.4430838139193912
aa(lp13
I14
aF0.47990491802444557
aF0.12613670881738115
aa(lp14
I14
aF0.4940988342855148
aF0.5462310172436656
aag5
ag6
ag7
ag8
ag9
a(lp15
F10.4
aI1
aF0.4410859884511147
aa(lp16
I10
aI1
aF0.8028433775979689
aag12
ag13
ag14
ag5
ag6
ag7
ag8
a(lp17
F18.3
aI1
aF0.8282330005745538
aa(lp18
F22.2
aF0.5565488306130649
aF0.9110251667081477
aa(lp19
F21.3
aF0.7768538469810082
aF0.5453778018054656
aag12
ag13
a(lp20
F17.1
aF0.42104306829350036
aF0.1
aa(lp21
F21.3
aF0.7768538469810082
aF0.5453778018054656
aag6
a(lp22
I10
aF0.5828791214378302
aF0.9265884285973632
aag8
a(lp23
F29.5
aF0.1
aF0.4577478274074336
aag10
ag11
ag12
a(lp24
F26.5
aF0.5954431054203668
aF0.19500974613353284
aa(lp25
I30
aF0.1
aF0.1
aassI2
(dp26
F1.0
(lp27
(lp28
I30
aF0.5996883930365763
aF0.9863347073997699
aa(lp29
I26
aF0.8330445464304163
aF0.18298700678974988
aa(lp30
I28
aF0.7805570251417719
aF0.6183159698091727
aa(lp31
I29
aF0.8951502513921423
aF0.9228866470817997
aa(lp32
I19
aF0.9838466898465181
aF0.7019954444089908
aa(lp33
I14
aF0.9642153598753822
aF0.3824353141090886
aa(lp34
I24
aF0.3866332554401831
aF0.2883791370529111
aa(lp35
I22
aF0.6915091605524261
aF0.4671182157867062
aa(lp36
I26
aF0.6501394822627474
aF0.5470215375068157
aa(lp37
I19
aF0.24943762922116824
aF0.2877978966094371
aa(lp38
F16.2
aF0.884771919731925
aF0.9008872907068601
aa(lp39
I30
aF0.728677813059354
aI1
aag30
ag31
ag32
ag33
ag34
ag35
a(lp40
F17.8
aF0.5423705642349509
aF0.1
aag37
ag28
ag29
a(lp41
F19.1
aF0.24408449185238174
aF0.1
aag31
ag32
a(lp42
F16.8
aF0.9288995974170624
aF0.6899545330341565
aag34
ag35
ag36
a(lp43
F23.7
aF0.22790481589215367
aF0.754972056159955
aag28
ag29
ag30
ag31
ag32
ag33
ag34
ag35
ag36
ag37
assI3
(dp44
F1.0
(lp45
(lp46
I28
aF0.16121664517493375
aF0.34273393283614917
aa(lp47
I23
aF0.8472130307791993
aF0.6718857688156883
aa(lp48
I30
aF0.3375077022267502
aF0.6451134146526828
aa(lp49
I12
aF0.133296716707211
aF0.2217099028592983
aa(lp50
I24
aF0.5439583545715782
aF0.6288323519912659
aa(lp51
I24
aF0.4432552031470368
aF0.4790996458354543
aa(lp52
I30
aF0.528792109669584
aF0.6249685148779336
aa(lp53
I29
aF0.4325547459591217
aF0.6185052054928609
aa(lp54
I27
aF0.9216147678632337
aF0.11536246750894957
aa(lp55
I19
aF0.4791545245723229
aF0.5089235527582869
aag46
ag47
ag48
ag49
ag50
ag51
ag52
ag53
a(lp56
I10
aF0.16591656173645183
aF0.14500274594509655
aag55
a(lp57
I30
aF0.1
aI1
aag47
a(lp58
F23.7
aF0.7513486252477564
aF0.7413012488234301
aag49
ag50
a(lp59
F19.0
aF0.10067687167797015
aF0.2984170597735001
aa(lp60
F20.5
aF0.5212377291757564
aF0.48632864838433776
aag53
a(lp61
I30
aI1
aF0.3164120224382416
aag55
ag46
a(lp62
F26.2
aF0.6299817365395939
aF0.7139612045923744
aag48
a(lp63
F21.2
aF0.49187713861275406
aI1
aag50
ag51
ag52
ag53
a(lp64
F21.1
aF0.20417866383676814
aF0.8656477859165758
aag55
assI4
(dp65
F0.8888888888888888
(lp66
(lp67
I24
aF0.5281305928302558
aF0.13799929537672573
aa(lp68
I25
aF0.8687451323223102
aF0.9236715774338752
aa(lp69
I13
aF0.7790242917361527
aF0.5567376403121919
aa(lp70
I28
aF0.7734977736127009
aF0.4326548436442973
aa(lp71
I17
aF0.7039805896081169
aF0.846046105799175
aa(lp72
I16
aF0.7094121799992399
aF0.3939913979798334
aa(lp73
I16
aF0.6391965021153757
aF0.3619424158673614
aa(lp74
I30
aF0.4143657314385159
aF0.3706390373765609
aa(lp75
I28
aF0.4630942096543549
aF0.4845614070092118
aag68
a(lp76
I13
aF0.28399550080308017
aF0.10043885622977286
aag70
a(lp77
F24.7
aF0.5243284795564697
aF0.45443759085026486
aa(lp78
F28.0
aF0.724346799093996
aF0.4102205561655669
aag73
ag67
a(lp79
F17.9
aF0.7303101713744125
aF0.10339514430795069
aag68
a(lp80
F25.0
aI1
aI1
aa(lp81
F20.5
aF0.8804343733534605
aF0.1
aag73
ag75
ag68
ag69
ag73
asF0.7777777777777778
(lp82
g67
asF1.0
(lp83
g75
ag76
a(lp84
I21
aF0.1359053870822261
aF0.4284315749611861
aag69
ag84
a(lp85
F18.6
aF0.3993306807030155
aF0.15477668637406294
aa(lp86
F13.3
aF0.1
aF0.7178054584696005
aa(lp87
I10
aF0.22119091239276994
aF0.1
aag84
ag76
ag86
ag87
a(lp88
F13.3
aF0.31153097631635396
aF0.7215484164160124
aag84
assI5
(dp89
F0.8888888888888888
(lp90
(lp91
I29
aF0.39263760214857923
aF0.5003999001811577
aa(lp92
I24
aF0.18575349578958394
aF0.7970009661757617
aa(lp93
F24.0
aF0.1
aF0.9942857819741656
aag92
asF0.7777777777777778
(lp94
(lp95
I29
aF0.7575862362390358
aF0.5443625461178573
aa(lp96
I14
aF0.2613489694657105
aF0.8843583622441871
aa(lp97
I14
aF0.41550435295480126
aF0.8579200157804285
aa(lp98
I29
aF0.45022057643242386
aF0.8261979972584343
aa(lp99
I19
aF0.9347492244713699
aF0.7457355322882828
aa(lp100
I13
aF0.6285363896409152
aF0.226181386545656
aa(lp101
I16
aF0.8971453134532649
aF0.4467036225054596
aag96
ag98
ag99
ag96
a(lp102
F26.1
aF0.3737797424582287
aF0.9513665313476242
aag99
a(lp103
I10
aF0.7949824885807547
aI1
aag96
ag97
ag98
a(lp104
I12
aF0.9122198833153673
aF0.27526347203227647
aag101
asF0.6666666666666666
(lp105
g104
ag91
ag95
a(lp106
F16.0
aF0.8568372314545736
aF0.21864495455136593
aa(lp107
F17.0
aF0.5249235494168462
aF0.7406772406966556
aag104
ag95
a(lp108
F13.4
aI1
aF0.5005273917190713
aag98
a(lp109
I10
aF0.9677064432681775
aF0.16985766106654993
aag99
ag100
asF0.5555555555555556
(lp110
g100
ag101
a(lp111
F17.1
aI1
aF0.15870837845954677
aag104
ag101
assI6
(dp112
F0.4444444444444444
(lp113
(lp114
I17
aF0.5973958369753016
aF0.276042492718491
aa(lp115
I18
aF0.2264012304700445
aF0.22528854044959634
aa(lp116
I28
aF0.48681436105175857
aF0.6420593399173964
aa(lp117
I12
aF0.7120962499378404
aF0.2578903833969194
aa(lp118
I10
aF0.7798417850728638
aF0.4050367338510906
aa(lp119
F27.3
aF0.5017691664655344
aF0.1275405898362183
aag117
a(lp120
F17.599999999999998
aF0.4564328478479503
aF0.1605320568188901
aa(lp121
F12.7
aF0.7486576856766072
aF0.24140801381848281
aa(lp122
I16
aF0.6981775496397029
aF0.31611600339890944
aa(lp123
I13
aF0.690732242203875
aF0.9929171692271739
aag114
ag115
a(lp124
I23
aF0.28071349559876446
aF0.20057892197091987
aasF0.6666666666666666
(lp125
(lp126
I30
aF0.27339915807154114
aF0.8190482836743431
aag121
ag124
ag115
a(lp127
I17
aF0.17417060798609196
aF0.24883478270450574
aag127
a(lp128
F14.69
aF0.20950670321192494
aF0.1965391899982071
aasF0.3333333333333333
(lp129
g121
asF0.5555555555555556
(lp130
g118
ag127
ag122
ag124
ag123
ag126
ag114
ag127
ag122
ag123
ag126
ag118
ag124
ag117
ag126
ag118
ag122
ag123
assI7
(dp131
F0.4444444444444444
(lp132
(lp133
I25
aF0.1718565842353788
aF0.6790140082212769
aa(lp134
I20
aF0.49651552925404996
aF0.16030326771225334
aa(lp135
I12
aF0.46002763388333245
aF0.1852504359881832
aa(lp136
I22
aF0.9396633784313801
aF0.8831368839505489
aag136
a(lp137
I30
aI1
aI1
aa(lp138
F23.6
aF0.1
aF0.7578984005444369
aa(lp139
F22.9
aF0.1
aF0.6424125343282969
aa(lp140
I12
aF0.5833862455024343
aF0.23535933326666095
aag136
a(lp141
I18
aF0.41407007061064194
aF0.28454098080025014
aa(lp142
F21.4
aF0.7882612298027305
aF0.20039663612778774
aa(lp143
I27
aF0.8138027565622328
aF0.18293361833463684
aa(lp144
I10
aF0.20540558922076707
aF0.1
aa(lp145
I27
aF0.7960225917436456
aF0.9477121801528857
aag140
ag136
asF0.3333333333333333
(lp146
(lp147
I12
aF0.37226306339279547
aF0.2573420184306048
aag143
ag140
ag143
ag133
ag145
ag134
a(lp148
F13.4
aF0.6629332400057504
aF0.7552435429589739
aag143
a(lp149
F12.0
aF0.5709401301294234
aF0.7707043265394351
aa(lp150
I10
aF0.1788736001084227
aF0.1
aag135
a(lp151
F22.9
aF0.40321277416380064
aF0.1
aasF0.2222222222222222
(lp152
g140
asF0.5555555555555556
(lp153
g141
a(lp154
I20
aF0.8293131800577204
aF0.9958288729836346
aag145
ag141
ag137
ag154
ag141
a(lp155
I10
aF0.7021408334975807
aF0.1
aag135
assI8
(dp156
F0.7777777777777778
(lp157
(lp158
I16
aF0.3902922937040878
aF0.614468091170818
aa(lp159
F16.6
aF0.14371749634829234
aF0.30452054220873076
aa(lp160
I16
aF0.29402515305313726
aF0.4367500789272324
aasF0.2222222222222222
(lp161
(lp162
I26
aF0.8879655628346061
aF0.3857206851632803
aa(lp163
I27
aF0.8201749291061293
aF0.28014745439238387
aa(lp164
F28.8
aF0.5026681525435047
aF0.1
aag163
ag162
asF0.5555555555555556
(lp165
(lp166
I17
aF0.7291743492973797
aF0.2638043669893677
aag166
a(lp167
I28
aF0.8116791034415395
aF0.8497744049963162
aag167
a(lp168
I21
aF0.6254405369300174
aF0.2981676823236278
aasF0.4444444444444444
(lp169
g160
a(lp170
I26
aF0.5254468361928705
aF0.2161386059491866
aa(lp171
I18
aF0.3440800834223606
aF0.7480656015417214
aag168
a(lp172
I20
aF0.3577513170621367
aF0.2547412161444496
aag170
ag167
ag171
ag168
ag158
ag159
ag163
asF0.3333333333333333
(lp173
g167
ag158
ag158
ag160
ag171
ag168
ag172
a(lp174
F27.4
aF0.47204631461772384
aF0.5409762098323116
aag170
ag163
ag166
ag162
a(lp175
F29.08
aF0.862652964600078
aF0.2116916040296145
aa(lp176
I30
aI1
aF0.9066145050645008
aasF0.6666666666666666
(lp177
g160
assI9
(dp178
F0.7777777777777778
(lp179
(lp180
F14.6
aF0.8679709737109557
aF0.3031363667662669
aasF0.2222222222222222
(lp181
(lp182
I27
aF0.980487004221968
aF0.8018480706674251
aa(lp183
I26
aF0.6922697962020233
aF0.5573828533631268
aa(lp184
I30
aF0.1931844356337864
aF0.43974862483168353
aa(lp185
I13
aF0.7489973957631934
aF0.19261388035511112
aa(lp186
I12
aF0.42285137072926904
aF0.29626107416701003
aa(lp187
I19
aF0.443032075718094
aF0.21183074674739355
aa(lp188
I16
aF0.7059266933089604
aF0.22111665150278412
aag183
ag186
ag187
ag182
ag183
ag187
a(lp189
I27
aF0.6883233721690473
aF0.728940608118302
aag184
asF0.5555555555555556
(lp190
(lp191
I15
aF0.9695317893322181
aF0.9680401457816317
aag188
ag191
ag188
ag191
asF0.4444444444444444
(lp192
g185
ag189
a(lp193
I17
aF0.6745239048638015
aF0.3290017685523689
aag185
ag193
ag188
asF0.3333333333333333
(lp194
g186
ag187
ag189
ag193
a(lp195
F24.7
aF0.49963055680478624
aF0.4885442832113719
aag182
a(lp196
I30
aF0.3648883431494537
aF0.8017255277913193
aag184
ag184
ag182
ag185
asF0.6666666666666666
(lp197
g191
ag186
asss.
