(dp0
S'SE0.txt'
p1
(dp2
I5
F1.0
ss.(dp0
S'SE0.txt'
p1
(dp2
I5
(lp3
ccopy_reg
_reconstructor
p4
(c__main__
Individual
p5
c__builtin__
tuple
p6
((lp7
I15
aF0.8626903632435095
aF0.7873971570789526
aF0.7777777777777778
tp8
tp9
Rp10
ag4
(g5
g6
((lp11
F22.990000000000002
aF0.1
aF0.7472657709528598
aF1.0
tp12
tp13
Rp14
ag4
(g5
g6
((lp15
I36
aF0.8098510160219619
aF0.1844736280968114
aF0.3333333333333333
tp16
tp17
Rp18
ag4
(g5
g6
((lp19
I11
aF0.8521885935278827
aF0.489490361114548
aF0.8888888888888888
tp20
tp21
Rp22
ag4
(g5
g6
((lp23
I41
aF0.10189544801599963
aF0.5008484746493213
aF0.8888888888888888
tp24
tp25
Rp26
ag4
(g5
g6
((lp27
F41.7
aF0.138150368884062
aF0.4716661333956604
aF0.7777777777777778
tp28
tp29
Rp30
ag4
(g5
g6
((lp31
F38.1
aF0.1
aF0.4165667098078637
aF0.8888888888888888
tp32
tp33
Rp34
ag4
(g5
g6
((lp35
I32
aF0.9452342465006595
aF0.4430838139193912
aF0.4444444444444444
tp36
tp37
Rp38
ag4
(g5
g6
((lp39
I18
aF0.47990491802444557
aF0.12613670881738115
aF0.7777777777777778
tp40
tp41
Rp42
ag4
(g5
g6
((lp43
I19
aF0.4940988342855148
aF0.5462310172436656
aF0.6666666666666666
tp44
tp45
Rp46
ass.(dp0
S'SE0.txt'
p1
(dp2
I5
(dp3
F1.0
(lp4
(lp5
F22.990000000000002
aF0.1
aF0.7472657709528598
aasF0.7777777777777778
(lp6
(lp7
I11
aF0.8521885935278827
aF0.489490361114548
aa(lp8
I18
aF0.47990491802444557
aF0.12613670881738115
aag7
a(lp9
F41.7
aF0.138150368884062
aF0.4716661333956604
aa(lp10
I15
aF0.8626903632435095
aF0.7873971570789526
aa(lp11
I10
aF0.8048961255422378
aF0.5488164558060458
aa(lp12
I41
aF0.10189544801599963
aF0.5008484746493213
aag9
a(lp13
I50
aF0.1
aF0.16333653740506576
aag8
ag10
ag12
ag9
asF0.8888888888888888
(lp14
g12
ag7
a(lp15
F38.1
aF0.1
aF0.4165667098078637
aasF0.5555555555555556
(lp16
g10
a(lp17
I39
aF0.3058859991434074
aF0.95074362599853
aa(lp18
I46
aF0.1275309847301982
aF0.12290127489411473
aa(lp19
F43.2
aF0.2222992460652865
aF0.3039284049699206
aasF0.4444444444444444
(lp20
(lp21
I32
aF0.9452342465006595
aF0.4430838139193912
aag21
ag21
ag21
asF0.6666666666666666
(lp22
(lp23
I20
aF0.5458915783827468
aF0.5045419583098644
aa(lp24
I19
aF0.4940988342855148
aF0.5462310172436656
aag10
ag23
ag13
ag24
a(lp25
I10
aI1
aF0.417043933908012
aag8
ag24
asF0.3333333333333333
(lp26
(lp27
I36
aF0.8098510160219619
aF0.1844736280968114
aag27
a(lp28
F49.5
aF0.9155979422465149
aF0.2295721008069756
aa(lp29
F29.7
aI1
aF0.17393751006008995
aag27
ag27
asss.(dp0
S'SE0.txt'
p1
F3204.748841047287
s.