(dp0
S'SE1.txt'
p1
(dp2
I5
F1.0
ss.(dp0
S'SE1.txt'
p1
(dp2
I5
(lp3
ccopy_reg
_reconstructor
p4
(c__main__
Individual
p5
c__builtin__
tuple
p6
((lp7
I15
aF0.8626903632435095
aF0.7873971570789526
aF0.8888888888888888
tp8
tp9
Rp10
ag4
(g5
g6
((lp11
I20
aF0.5458915783827468
aF0.5045419583098644
aF0.7777777777777778
tp12
tp13
Rp14
ag4
(g5
g6
((lp15
I36
aF0.8098510160219619
aF0.1844736280968114
aF0.6666666666666666
tp16
tp17
Rp18
ag4
(g5
g6
((lp19
F23.5
aF0.13153175227014421
aF0.7143601877617369
aF1.0
tp20
tp21
Rp22
ag4
(g5
g6
((lp23
I41
aF0.10189544801599963
aF0.5008484746493213
aF1.0
tp24
tp25
Rp26
ag4
(g5
g6
((lp27
F10.3
aI1
aF0.9082309314487778
aF0.8888888888888888
tp28
tp29
Rp30
ag4
(g5
g6
((lp31
I46
aF0.1275309847301982
aF0.12290127489411473
aF0.8888888888888888
tp32
tp33
Rp34
ag4
(g5
g6
((lp35
I32
aF0.9452342465006595
aF0.4430838139193912
aF0.6666666666666666
tp36
tp37
Rp38
ag4
(g5
g6
((lp39
I18
aF0.47990491802444557
aF0.12613670881738115
aF0.8888888888888888
tp40
tp41
Rp42
ag4
(g5
g6
((lp43
I19
aF0.4940988342855148
aF0.5462310172436656
aF0.8888888888888888
tp44
tp45
Rp46
ass.(dp0
S'SE1.txt'
p1
(dp2
I5
(dp3
F0.8888888888888888
(lp4
(lp5
I11
aF0.8521885935278827
aF0.489490361114548
aa(lp6
I46
aF0.1275309847301982
aF0.12290127489411473
aa(lp7
I18
aF0.47990491802444557
aF0.12613670881738115
aa(lp8
I19
aF0.4940988342855148
aF0.5462310172436656
aa(lp9
I15
aF0.8626903632435095
aF0.7873971570789526
aa(lp10
I10
aI1
aF0.449055098603597
aag6
ag8
ag5
ag6
ag8
ag9
a(lp11
F10.3
aI1
aF0.9082309314487778
aa(lp12
F15.2
aF0.47255367922350683
aF0.1
aasF0.7777777777777778
(lp13
g9
a(lp14
I20
aF0.5458915783827468
aF0.5045419583098644
aa(lp15
I39
aF0.3058859991434074
aF0.95074362599853
aag14
ag15
ag7
a(lp16
F16.2
aF0.4867475954845761
aF0.33769626006858244
aag14
ag15
ag7
ag14
a(lp17
F29.2
aF0.5593361779710986
aF0.2223418827235233
aag8
asF0.6666666666666666
(lp18
(lp19
I36
aF0.8098510160219619
aF0.1844736280968114
aa(lp20
I32
aF0.9452342465006595
aF0.4430838139193912
aa(lp21
F42.3
aF0.5954431054203668
aF0.19500974613353284
aa(lp22
F29.2
aF0.6646765243718961
aF0.1
aasF0.5555555555555556
(lp23
g19
ag19
ag20
ag19
asF1.0
(lp24
(lp25
I41
aF0.10189544801599963
aF0.5008484746493213
aag25
ag25
a(lp26
F23.5
aF0.13153175227014421
aF0.7143601877617369
aag25
asss.(dp0
S'SE1.txt'
p1
F23262.5975689888
s.