(dp0
S'SE6.txt'
p1
(dp2
I5
F1.0
ss.(dp0
S'SE6.txt'
p1
(dp2
I5
(lp3
ccopy_reg
_reconstructor
p4
(c__main__
Individual
p5
c__builtin__
tuple
p6
((lp7
I10
aF0.7907022092811686
aF0.12872214737976134
aF1.0
tp8
tp9
Rp10
ag4
(g5
g6
((lp11
I20
aF0.5458915783827468
aF0.5045419583098644
aF0.7777777777777778
tp12
tp13
Rp14
ag4
(g5
g6
((lp15
F19.3
aF0.6165070129753174
aF0.9659955921787078
aF0.7777777777777778
tp16
tp17
Rp18
ag4
(g5
g6
((lp19
I11
aF0.8521885935278827
aF0.489490361114548
aF1.0
tp20
tp21
Rp22
ag4
(g5
g6
((lp23
I41
aF0.10189544801599963
aF0.5008484746493213
aF1.0
tp24
tp25
Rp26
ag4
(g5
g6
((lp27
I39
aF0.3058859991434074
aF0.95074362599853
aF0.6666666666666666
tp28
tp29
Rp30
ag4
(g5
g6
((lp31
I46
aF0.1275309847301982
aF0.12290127489411473
aF0.7777777777777778
tp32
tp33
Rp34
ag4
(g5
g6
((lp35
I32
aF0.9452342465006595
aF0.4430838139193912
aF0.5555555555555556
tp36
tp37
Rp38
ag4
(g5
g6
((lp39
I18
aF0.47990491802444557
aF0.12613670881738115
aF0.8888888888888888
tp40
tp41
Rp42
ag4
(g5
g6
((lp43
I19
aF0.4940988342855148
aF0.5462310172436656
aF0.8888888888888888
tp44
tp45
Rp46
ass.(dp0
S'SE6.txt'
p1
(dp2
I5
(dp3
F1.0
(lp4
(lp5
I11
aF0.8521885935278827
aF0.489490361114548
aa(lp6
I41
aF0.10189544801599963
aF0.5008484746493213
aag6
a(lp7
I10
aF0.7907022092811686
aF0.12872214737976134
aa(lp8
I10
aI1
aF0.5382803377693244
aasF0.7777777777777778
(lp9
(lp10
I20
aF0.5458915783827468
aF0.5045419583098644
aa(lp11
I46
aF0.1275309847301982
aF0.12290127489411473
aa(lp12
I18
aF0.47990491802444557
aF0.12613670881738115
aa(lp13
I15
aF0.8626903632435095
aF0.7873971570789526
aag10
a(lp14
F21.5
aF0.49784979372438454
aF0.1
aag13
ag10
a(lp15
F19.3
aF0.6165070129753174
aF0.9659955921787078
aag12
ag15
asF0.5555555555555556
(lp16
(lp17
I32
aF0.9452342465006595
aF0.4430838139193912
aa(lp18
F33.4
aF0.5565488306130649
aF0.9110251667081477
aa(lp19
I39
aF0.3058859991434074
aF0.95074362599853
aa(lp20
F33.9
aF0.6060928685547878
aF0.49106633743426703
aasF0.8888888888888888
(lp21
g13
a(lp22
I19
aF0.4940988342855148
aF0.5462310172436656
aag5
ag12
ag22
ag5
ag22
ag5
ag22
asF0.6666666666666666
(lp23
g19
ag19
ag19
asF0.4444444444444444
(lp24
(lp25
I36
aF0.8098510160219619
aF0.1844736280968114
aa(lp26
I50
aF0.3636667174234124
aF0.7097242857868371
aag17
a(lp27
F30.9
aF0.5518795525655198
aF0.30521167703197266
aag17
a(lp28
F48.8
aF0.6316165290767571
aI1
aag17
asF0.3333333333333333
(lp29
g25
asss.(dp0
S'SE6.txt'
p1
F8304.853662014008
s.