(dp0
S'SE3.txt'
p1
(dp2
I5
F1.0
ss.(dp0
S'SE3.txt'
p1
(dp2
I5
(lp3
ccopy_reg
_reconstructor
p4
(c__main__
Individual
p5
c__builtin__
tuple
p6
((lp7
I15
aF0.8626903632435095
aF0.7873971570789526
aF1.0
tp8
tp9
Rp10
ag4
(g5
g6
((lp11
I20
aF0.5458915783827468
aF0.5045419583098644
aF1.0
tp12
tp13
Rp14
ag4
(g5
g6
((lp15
I36
aF0.8098510160219619
aF0.1844736280968114
aF0.8888888888888888
tp16
tp17
Rp18
ag4
(g5
g6
((lp19
I11
aF0.8521885935278827
aF0.489490361114548
aF1.0
tp20
tp21
Rp22
ag4
(g5
g6
((lp23
I41
aF0.10189544801599963
aF0.5008484746493213
aF1.0
tp24
tp25
Rp26
ag4
(g5
g6
((lp27
I10
aF0.5369598333101597
aF0.5655341835075456
aF1.0
tp28
tp29
Rp30
ag4
(g5
g6
((lp31
I46
aF0.1275309847301982
aF0.12290127489411473
aF1.0
tp32
tp33
Rp34
ag4
(g5
g6
((lp35
F15.7
aF0.8989452841115718
aF0.7582148158252917
aF1.0
tp36
tp37
Rp38
ag4
(g5
g6
((lp39
I18
aF0.47990491802444557
aF0.12613670881738115
aF1.0
tp40
tp41
Rp42
ag4
(g5
g6
((lp43
I19
aF0.4940988342855148
aF0.5462310172436656
aF1.0
tp44
tp45
Rp46
ass.(dp0
S'SE3.txt'
p1
(dp2
I5
(dp3
F1.0
(lp4
(lp5
I15
aF0.8626903632435095
aF0.7873971570789526
aa(lp6
I20
aF0.5458915783827468
aF0.5045419583098644
aa(lp7
I11
aF0.8521885935278827
aF0.489490361114548
aa(lp8
I41
aF0.10189544801599963
aF0.5008484746493213
aa(lp9
I46
aF0.1275309847301982
aF0.12290127489411473
aa(lp10
I18
aF0.47990491802444557
aF0.12613670881738115
aa(lp11
I19
aF0.4940988342855148
aF0.5462310172436656
aag5
ag6
ag8
a(lp12
I10
aF0.5369598333101597
aF0.5655341835075456
aa(lp13
F13.100000000000001
aF0.9274486911745219
aF0.1
aa(lp14
F15.7
aF0.8989452841115718
aF0.7582148158252917
aag10
ag11
ag5
ag6
ag7
ag8
ag12
ag9
ag14
a(lp15
F46.49
aF0.15290942933784185
aF0.10247363601655209
aag11
ag5
ag6
ag7
ag8
ag12
ag9
ag14
ag10
ag11
asF0.8888888888888888
(lp16
(lp17
I36
aF0.8098510160219619
aF0.1844736280968114
aa(lp18
I39
aF0.3058859991434074
aF0.95074362599853
aa(lp19
I32
aF0.9452342465006595
aF0.4430838139193912
aag17
a(lp20
F31.3
aF0.935298505117911
aF0.14901779802099213
aag17
ag17
asss.(dp0
S'SE3.txt'
p1
F32984.080740213394
s.