(dp0
S'SE8.txt'
p1
(dp2
I5
F1.0
ss.(dp0
S'SE8.txt'
p1
(dp2
I5
(lp3
ccopy_reg
_reconstructor
p4
(c__main__
Individual
p5
c__builtin__
tuple
p6
((lp7
I15
aF0.8626903632435095
aF0.7873971570789526
aF0.8888888888888888
tp8
tp9
Rp10
ag4
(g5
g6
((lp11
I20
aF0.5458915783827468
aF0.5045419583098644
aF0.8888888888888888
tp12
tp13
Rp14
ag4
(g5
g6
((lp15
F28.5
aI1
aF0.641082453057753
aF0.8888888888888888
tp16
tp17
Rp18
ag4
(g5
g6
((lp19
I11
aF0.8521885935278827
aF0.489490361114548
aF1.0
tp20
tp21
Rp22
ag4
(g5
g6
((lp23
I41
aF0.10189544801599963
aF0.5008484746493213
aF1.0
tp24
tp25
Rp26
ag4
(g5
g6
((lp27
I39
aF0.3058859991434074
aF0.95074362599853
aF0.8888888888888888
tp28
tp29
Rp30
ag4
(g5
g6
((lp31
I46
aF0.1275309847301982
aF0.12290127489411473
aF0.8888888888888888
tp32
tp33
Rp34
ag4
(g5
g6
((lp35
I32
aF0.9452342465006595
aF0.4430838139193912
aF0.7777777777777778
tp36
tp37
Rp38
ag4
(g5
g6
((lp39
I18
aF0.47990491802444557
aF0.12613670881738115
aF0.8888888888888888
tp40
tp41
Rp42
ag4
(g5
g6
((lp43
I19
aF0.4940988342855148
aF0.5462310172436656
aF0.8888888888888888
tp44
tp45
Rp46
ass.(dp0
S'SE8.txt'
p1
(dp2
I5
(dp3
F0.8888888888888888
(lp4
(lp5
I15
aF0.8626903632435095
aF0.7873971570789526
aa(lp6
I11
aF0.8521885935278827
aF0.489490361114548
aa(lp7
I46
aF0.1275309847301982
aF0.12290127489411473
aa(lp8
I18
aF0.47990491802444557
aF0.12613670881738115
aa(lp9
I19
aF0.4940988342855148
aF0.5462310172436656
aag5
ag6
a(lp10
I39
aF0.3058859991434074
aF0.95074362599853
aag7
ag8
a(lp11
I20
aF0.5458915783827468
aF0.5045419583098644
aag6
ag7
ag9
a(lp12
F36.099999999999994
aF0.2812849493768347
aF0.7668401943922225
aag11
a(lp13
F28.5
aI1
aF0.641082453057753
aa(lp14
F19.9
aF0.737841853154263
aF0.20790751130586194
aag8
ag9
asF0.7777777777777778
(lp15
g11
ag10
a(lp16
I32
aF0.9452342465006595
aF0.4430838139193912
aag16
ag9
a(lp17
F33.7
aF0.4571112912304315
aF0.12418454695616676
aag13
ag10
ag16
a(lp18
I50
aF0.19266294181114194
aF0.1
aag10
ag16
asF0.6666666666666666
(lp19
(lp20
I36
aF0.8098510160219619
aF0.1844736280968114
aa(lp21
F34.0
aF0.5795194699202342
aF0.5439491218912089
aag20
asF1.0
(lp22
(lp23
I41
aF0.10189544801599963
aF0.5008484746493213
aag23
ag23
ag6
ag23
asss.(dp0
S'SE8.txt'
p1
F26784.876120090485
s.