(dp0
S'pitsE'
p1
(dp2
I1
F1.0
sI2
F1.0
sI3
F1.0
sI4
F1.0
sI5
F1.0
sI6
F0.8888888888888888
sI7
F1.0
sI8
F0.7777777777777778
sI9
F0.6666666666666666
ss.(dp0
S'pitsE'
p1
(dp2
I1
(dp3
F1.0
(lp4
(lp5
I12
aF0.8474337369372327
aF0.763774618976614
aa(lp6
I15
aF0.49543508709194095
aF0.4494910647887381
aa(lp7
I23
aF0.7887233511355132
aF0.0938595867742349
aa(lp8
I10
aF0.8357651039198697
aF0.43276706790505337
aa(lp9
I26
aF0.0021060533511106927
aF0.4453871940548014
aa(lp10
I25
aF0.22876222127045265
aF0.9452706955539223
aa(lp11
I28
aF0.030589983033553536
aF0.0254458609934608
aa(lp12
I21
aF0.9391491627785106
aF0.38120423768821243
aa(lp13
I14
aF0.4221165755827173
aF0.029040787574867943
aa(lp14
I14
aF0.43788759365057206
aF0.49581224138185065
aag5
ag6
ag7
ag8
ag9
a(lp15
F10.4
aI1
aF0.3789844316123497
aa(lp16
I10
aI1
aF0.7809370862199654
aag12
ag13
ag14
ag5
ag6
ag7
ag8
a(lp17
F18.3
aI1
aF0.8091477784161709
aa(lp18
F22.2
aF0.507276478458961
aF0.9011390741201641
aa(lp19
F21.3
aF0.7520598299788981
aF0.494864224228295
aag12
ag13
a(lp20
F17.1
aF0.3567145203261116
aI0
aa(lp21
F21.3
aF0.7520598299788981
aF0.494864224228295
aag6
a(lp22
I10
aF0.5365323571531446
aF0.9184315873304034
aag8
a(lp23
F29.5
aI0
aF0.3974975860082596
aag10
ag11
ag12
a(lp24
F26.5
aF0.5504923393559631
aF0.10556638459281423
aa(lp25
I30
aI0
aI0
aassI2
(dp26
F1.0
(lp27
(lp28
I30
aF0.5552093255961958
aF0.9848163415553
aa(lp29
I26
aF0.8144939404782403
aF0.09220778532194429
aa(lp30
I28
aF0.7561744723797467
aF0.575906633121303
aa(lp31
I29
aF0.8835002793246026
aF0.9143184967575552
aa(lp32
I19
aF0.9820518776072423
aF0.6688838271211008
aa(lp33
I14
aF0.9602392887504246
aF0.3138170156767651
aa(lp34
I24
aF0.3184813949335368
aF0.20931015228101235
aa(lp35
I22
aF0.6572324006138067
aF0.40790912865189577
aa(lp36
I26
aF0.6112660914030527
aF0.49669059722979525
aa(lp37
I19
aF0.1660418102457425
aF0.2086643295660412
aa(lp38
F16.2
aF0.8719687997021388
aF0.8898747674520668
aa(lp39
I30
aF0.6985309033992821
aI1
aag30
ag31
ag32
ag33
ag34
ag35
a(lp40
F17.8
aF0.4915228491499454
aI0
aag37
ag28
ag29
a(lp41
F19.1
aF0.16009387983597967
aI0
aag31
ag32
a(lp42
F16.8
aF0.9209995526856248
aF0.6555050367046185
aag34
ag35
ag36
a(lp43
F23.7
aF0.14211646210239293
aF0.7277467290666167
aag28
ag29
ag30
ag31
ag32
ag33
ag34
ag35
ag36
ag37
assI3
(dp44
F1.0
(lp45
(lp46
I28
aF0.06801849463881526
aF0.26970436981794355
aa(lp47
I23
aF0.830236700865777
aF0.6354286320174315
aa(lp48
I30
aF0.2638974469186113
aF0.6056815718363142
aa(lp49
I12
aF0.03699635189690109
aF0.13523322539922034
aa(lp50
I24
aF0.49328706063508676
aF0.5875915022125177
aa(lp51
I24
aF0.38139467016337425
aF0.4212218287060603
aa(lp52
I30
aF0.47643567741064885
aF0.5832983498643707
aa(lp53
I29
aF0.36950527328791294
aF0.5761168949920678
aa(lp54
I27
aF0.9129052976258153
aF0.017069408343277304
aa(lp55
I19
aF0.42128280508035876
aF0.45435950306476325
aag46
ag47
ag48
ag49
ag50
ag51
ag52
ag53
a(lp56
I10
aF0.07324062415161317
aF0.05000305105010719
aag55
a(lp57
I30
aI0
aI1
aag47
a(lp58
F23.7
aF0.7237206947197292
aF0.7125569431371445
aag49
ag50
a(lp59
F19.0
aF0.00075207964218902
aF0.22046339974833348
aa(lp60
F20.5
aF0.46804192130639594
aF0.42925405376037523
aag53
a(lp61
I30
aI1
aF0.24045780270915731
aag55
ag46
a(lp62
F26.2
aF0.5888685961551042
aF0.6821791162137495
aag48
a(lp63
F21.2
aF0.43541904290306
aI1
aag50
ag51
ag52
ag53
a(lp64
F21.1
aF0.11575407092974227
aF0.8507197621295286
aag55
assI4
(dp65
F0.8888888888888888
(lp66
(lp67
I24
aF0.4757006587002841
aF0.04222143930747302
aa(lp68
I13
aF0.20443944533675573
aF0.00048761803308094986
aa(lp69
I17
aF0.6710895440090188
aF0.8289401175546389
aa(lp70
I21
aF0.03989487453580676
aF0.36492397217909567
aa(lp71
I16
aF0.5991072245726397
aF0.29104712874151273
aa(lp72
I28
aF0.403438010727061
aF0.42729045223245754
aag68
a(lp73
F24.7
aF0.47147608839607735
aF0.3938195453891831
aag70
ag67
a(lp74
I10
aF0.1346565693252999
aI0
aa(lp75
F20.5
aF0.8671493037260671
aI0
aag70
ag67
a(lp76
I13
aF0.7544714352623919
aF0.5074862670135465
aag69
a(lp77
F13.3
aF0.23503441812928222
aF0.6906093515733471
aag70
ag71
asF0.7777777777777778
(lp78
g72
a(lp79
I16
aF0.6771246444435999
aF0.3266571088664816
aa(lp80
I30
aF0.3492952571539066
aF0.3007100415295121
aag71
a(lp81
F17.9
aF0.7003446348604583
aF0.00377238256438962
aa(lp82
F18.6
aF0.33258964522557277
aF0.06086298486006994
aag71
ag72
asF1.0
(lp83
(lp84
I25
aF0.8541612581359003
aF0.9151906415931946
aag76
a(lp85
I28
aF0.7483308595696676
aF0.36961649293810805
aag84
ag76
ag85
a(lp86
F28.0
aF0.6937186656599954
aF0.3446895068506299
aag84
a(lp87
F25.0
aI1
aI1
aa(lp88
F13.3
aI0
aF0.6864505094106672
aag84
ag87
ag85
assI5
(dp89
F1.0
(lp90
(lp91
I29
aF0.7306513735989286
aF0.49373616235317475
aag91
ag91
asF0.7777777777777778
(lp92
(lp93
I29
aF0.3891339738138042
aF0.8068866636204827
aa(lp94
I19
aF0.9274991383015221
aF0.7174839247647586
aa(lp95
I13
aF0.5872626551565724
aF0.14020154060628442
aa(lp96
I12
aF0.9024665370170748
aF0.19473719114697385
aa(lp97
I16
aF0.8857170149480721
aF0.38522624722828835
aa(lp98
I14
aF0.1792766327396783
aF0.87150929138243
aa(lp99
F16.0
aF0.8409302571717485
aF0.13182772727929531
aa(lp100
F17.0
aF0.47213727712982906
aF0.7118636007740616
aag94
ag96
ag97
ag98
a(lp101
F18.3
aI1
aF0.4888377772827174
aag94
a(lp102
F17.4
aI1
aI0
aag98
ag99
ag96
ag97
asF0.8888888888888888
(lp103
g97
a(lp104
I10
aF0.9641182702979749
aF0.07761962340727761
aag94
asF0.5555555555555556
(lp105
(lp106
I29
aF0.3251528912761992
aF0.444888777979064
aa(lp107
I14
aF0.3505603921720014
aF0.8421333508671428
aag95
asF0.4444444444444444
(lp108
g106
asF0.6666666666666666
(lp109
g98
a(lp110
I24
aF0.09528166198842658
aF0.7744455179730685
aag93
a(lp111
F17.0
aF0.23307509728024198
aF0.9310689516611772
aa(lp112
F19.1
aF0.6810553289838788
aF0.8833808954094644
aag93
a(lp113
F17.1
aI1
aF0.06523153162171857
aag96
ag100
ag93
ag95
assI6
(dp114
F0.8888888888888888
(lp115
(lp116
I10
aF0.755379761192071
aF0.3389297042789896
aasF0.4444444444444444
(lp117
(lp118
I30
aF0.19266573119060126
aF0.7989425374159368
aa(lp119
I17
aF0.5526620410836685
aF0.19560276968721224
aa(lp120
I28
aF0.4297937345019539
aF0.6022881554637738
aa(lp121
I16
aF0.6646417218218922
aF0.2401288926654549
aa(lp122
I12
aF0.6801069443753782
aF0.17543375932991045
aag118
ag116
ag119
a(lp123
F27.3
aF0.4464101849617048
aF0.030600655373575925
aag118
ag121
ag122
ag118
a(lp124
F12.7
aF0.7207307618628969
aF0.1571200153538698
aasF0.6666666666666666
(lp125
(lp126
I18
aF0.14044581163338277
aF0.13920948938844036
aag122
a(lp127
F17.599999999999998
aF0.3960364976088336
aF0.06725784090987792
aa(lp128
I23
aF0.20079277288751607
aF0.11175435774546649
aag121
a(lp129
I13
aF0.6563691580043055
aF0.9921301880301931
aa(lp130
F14.69
aF0.12167411467991657
aF0.10726576666467458
aasF0.3333333333333333
(lp131
g127
asF0.5555555555555556
(lp132
g116
a(lp133
I17
aF0.08241178665121329
aF0.16537198078278414
aag128
ag129
ag124
ag133
ag121
ag128
ag129
ag116
ag126
ag124
ag133
ag129
ag126
ag133
ag128
assI7
(dp134
F1.0
(lp135
(lp136
I30
aI1
aI1
aasF0.4444444444444444
(lp137
(lp138
I18
aF0.34896674512293546
aF0.20504553422250016
aa(lp139
I12
aF0.3025145148808839
aF0.17482446492289416
aa(lp140
I27
aF0.7733584352707173
aF0.9419024223920952
aa(lp141
I20
aF0.4405728102822777
aF0.0670036307913926
aa(lp142
I22
aF0.9329593093682002
aF0.8701520932783877
aag138
a(lp143
I20
aF0.8103479778419115
aF0.9953654144262607
aa(lp144
I12
aF0.5370958283360381
aF0.15039925918517882
aag138
a(lp145
F22.9
aI0
aF0.6026805936981077
aag144
ag138
a(lp146
F22.380000000000003
aF0.9225501712093589
aF0.5548797900081568
aa(lp147
I27
aF0.7931141739580364
aF0.09214846481626315
aa(lp148
F22.9
aF0.3369030824042229
aI0
aa(lp149
I10
aF0.6690453705528675
aI0
aasF0.5555555555555556
(lp150
(lp151
I25
aF0.07984064915042088
aF0.643348898023641
aag143
ag151
a(lp152
F13.4
aF0.625481377784167
aF0.7280483810655265
aag140
ag142
asF0.8888888888888888
(lp153
g136
asF0.3333333333333333
(lp154
g147
a(lp155
I12
aF0.4000307043148138
aF0.09472270665353688
aag144
ag147
ag141
ag147
a(lp156
F23.6
aI0
aF0.7309982228271521
aa(lp157
F12.0
aF0.5232668112549147
aF0.7452270294882613
aa(lp158
I10
aF0.24545280488235022
aF0.055347705293902066
aag152
a(lp159
I10
aF0.274932792784955
aI0
aag152
ag144
asF0.6666666666666666
(lp160
g140
ag142
ag142
assI8
(dp161
F0.4444444444444444
(lp162
(lp163
I26
aF0.8755172920384513
aF0.31746742795920024
aa(lp164
I27
aF0.800194365673477
aF0.20016383821375983
aa(lp165
I17
aF0.6990826103304218
aF0.18200485221040852
aa(lp166
I16
aF0.3225469930045419
aF0.5716312124120201
aa(lp167
I20
aF0.286390352291263
aF0.171934684604944
aa(lp168
F27.4
aF0.41338479401969314
aF0.48997356648034635
aa(lp169
I16
aF0.21558350339237475
aF0.3741667543635915
aa(lp170
F16.6
aF0.048574995942546995
aF0.22724504689858976
aa(lp171
F26.7
aF0.6809214334448744
aF0.16281903586067922
aag167
asF0.7777777777777778
(lp172
g165
asF0.3333333333333333
(lp173
(lp174
I28
aF0.7907545593794884
aF0.833082672218129
aa(lp175
I26
aF0.4727187068809672
aF0.1290428954990962
aag167
a(lp176
F28.8
aF0.4474090583816719
aI0
aag169
a(lp177
I18
aF0.2712000926915118
aF0.7200728906019127
aa(lp178
I21
aF0.5838228188111305
aF0.22018631369291974
aag164
ag174
ag166
ag175
ag177
ag178
ag164
ag165
ag163
ag174
ag169
ag178
ag164
asF0.5555555555555556
(lp179
(lp180
I30
aI1
aF0.9349555925661084
aasF0.2222222222222222
(lp181
g166
ag169
ag177
ag178
ag174
ag175
ag163
ag166
assI9
(dp182
F0.4444444444444444
(lp183
(lp184
I15
aF0.9661464325913535
aF0.9644890508684797
aasF0.2222222222222222
(lp185
(lp186
I12
aF0.3587237452547434
aF0.21806786018556668
aa(lp187
I19
aF0.3811467507978822
aF0.1242563852748817
aa(lp188
I27
aF0.6536926357433859
aF0.6988228979092245
aag184
a(lp189
I27
aF0.9783188935799645
aF0.7798311896304724
aa(lp190
I16
aF0.6732518814544004
aF0.13457405722531568
aa(lp191
F24.7
aF0.44403395200531803
aF0.43171587023485763
aa(lp192
I30
aF0.2943203812771708
aF0.7796950308792439
aa(lp193
I26
aF0.6580775513355814
aF0.5082031704034742
aa(lp194
I30
aF0.10353826181531822
aF0.3774984720352039
aa(lp195
I13
aF0.7211082175146593
aF0.10290431150567902
aag189
a(lp196
I17
aF0.6383598942931128
aF0.2544464095026321
aag193
ag194
ag187
ag188
ag184
ag196
ag190
a(lp197
F14.6
aF0.8533010819010618
aF0.22570707418474095
aag194
ag195
asF0.3333333333333333
(lp198
g196
ag193
ag194
ag195
ag186
ag187
ag184
ag190
ag186
ag190
ag195
ag186
ag189
asF0.1111111111111111
(lp199
g187
ag188
asF0.6666666666666666
(lp200
g189
asss.
