(dp0
S'pitsA'
p1
(dp2
I1
F1.0
sI2
F1.0
sI3
F1.0
sI4
F1.0
sI5
F1.0
sI6
F0.8888888888888888
sI7
F0.6666666666666666
sI8
F0.3333333333333333
sI9
F0.3333333333333333
ss.(dp0
S'pitsA'
p1
(dp2
I1
(dp3
F1.0
(lp4
(lp5
I12
aF0.8474337369372327
aF0.763774618976614
aa(lp6
I15
aF0.49543508709194095
aF0.4494910647887381
aa(lp7
I23
aF0.7887233511355132
aF0.0938595867742349
aa(lp8
I10
aF0.8357651039198697
aF0.43276706790505337
aa(lp9
I26
aF0.0021060533511106927
aF0.4453871940548014
aa(lp10
I25
aF0.22876222127045265
aF0.9452706955539223
aa(lp11
I28
aF0.030589983033553536
aF0.0254458609934608
aa(lp12
I21
aF0.9391491627785106
aF0.38120423768821243
aa(lp13
I14
aF0.4221165755827173
aF0.029040787574867943
aa(lp14
I14
aF0.43788759365057206
aF0.49581224138185065
aag5
ag6
ag7
ag8
ag9
ag10
ag11
ag12
a(lp15
F15.3
aF0.7163545099344646
aF0.12995356792602356
aag14
a(lp16
F28.1
aI0
aI0
aag6
ag7
ag8
a(lp17
I10
aF0.9827817849558179
aF0.12241368339127601
aag10
ag11
ag12
ag13
ag14
ag5
ag6
ag7
ag8
a(lp18
F19.1
aF0.5103735310789985
aF0.13593542524835928
aag10
ag11
ag12
ag13
a(lp19
F17.5
aI1
aF0.3694974398696331
aassI2
(dp20
F1.0
(lp21
(lp22
I11
aF0.10558383035400154
aF0.9310850561208317
aa(lp23
I27
aF0.5799146088526101
aF0.3157991730355295
aa(lp24
I20
aF0.45101397264150966
aF0.30277344421397323
aa(lp25
I22
aF0.5292862647403247
aF0.7796331193977978
aa(lp26
I26
aF0.3927736375112181
aF0.3925366067160181
aa(lp27
I19
aF0.6294670442763821
aF0.8070417219710884
aa(lp28
I20
aF0.34699616476121076
aF0.16012708757077565
aa(lp29
I17
aF0.40503142185860097
aF0.6811358981514155
aa(lp30
I17
aF0.28193125926034124
aF0.9637865523930588
aa(lp31
I20
aF0.16894208111026177
aF0.650912985479792
aag22
ag23
a(lp32
F29.1
aF0.6254600427032189
aI0
aag25
ag26
a(lp33
F12.100000000000001
aF0.3148009765108306
aF0.6720178879763261
aa(lp34
F20.4
aF0.6842576487455526
aI1
aag29
a(lp35
F27.7
aF0.4549974587081994
aI0
aa(lp36
F26.3
aF0.3379307151953082
aF0.11124240749475289
aa(lp37
F20.7
aF0.12864649842522546
aF0.1934833286700658
aa(lp38
F14.8
aF0.060742092562192096
aF0.8232367248757295
aag24
ag25
ag26
a(lp39
F21.1
aF0.5503746195713265
aF0.5880302251318017
aa(lp40
F24.9
aF0.33198499197424136
aF0.7598834453051198
aag29
a(lp41
F19.1
aF0.21180471358510106
aF0.9446005305917553
aa(lp42
F21.4
aF0.5786170426268894
aF0.7364276664928887
aa(lp43
F21.9
aF0.5696120286799851
aF0.729206883682075
aag23
a(lp44
F24.2
aF0.6076960621221791
aF0.12190997907933149
aa(lp45
F17.9
aF0.6162765111653471
aF0.3239294830841097
aa(lp46
F20.4
aF0.02605538776555172
aF0.4793669406208384
aag27
ag28
ag29
ag30
ag31
assI3
(dp47
F1.0
(lp48
(lp49
I22
aF0.1449243701168994
aF0.05771679419770015
aa(lp50
I12
aF0.2948245748653574
aF0.5375568487361084
aa(lp51
I28
aF0.02174660514019211
aF0.791946752885948
aa(lp52
I18
aF0.356564861736556
aF0.2626549713488078
aa(lp53
I19
aF0.4191572583011184
aF0.7286670229810117
aa(lp54
I24
aF0.2413815110209665
aF0.22622276689012732
aa(lp55
I27
aF0.6507761441192798
aF0.9355580003561341
aa(lp56
I19
aF0.7114919755709749
aF0.4798073822793919
aa(lp57
I20
aF0.17681491652199055
aF0.18923877996995075
aa(lp58
I19
aF0.5879815916357063
aF0.06403429579445163
aag49
ag50
ag51
a(lp59
F28.7
aF0.1837383160695973
aF0.6529122799978987
aa(lp60
F12.0
aF0.09019027277645786
aF0.7117585972272422
aag54
ag55
ag56
ag57
ag58
ag49
ag50
ag51
ag52
a(lp61
F15.100000000000001
aF0.08978203811695787
aF0.05546165799851846
aag54
ag55
ag56
ag57
ag58
ag49
ag50
ag51
ag52
a(lp62
I30
aF0.5458460007953592
aF0.5996699621792483
aag54
a(lp63
F22.7
aI0
aI0
aag56
a(lp64
F13.4
aF0.6304826736518929
aI0
aag58
assI4
(dp65
F1.0
(lp66
(lp67
I30
aF0.39279855717248147
aF0.9431097593798465
aa(lp68
I28
aF0.9860106121246796
aF0.7436239589144531
aa(lp69
I19
aF0.2000915589673905
aF0.27181261466533846
aa(lp70
I24
aF0.39644884089495913
aF0.15760470594889697
aa(lp71
I25
aF0.777479110855851
aF0.33375358119690846
aa(lp72
I19
aF0.8175491984308851
aF0.35708429879421777
aag67
ag68
a(lp73
F22.3
aF0.5521319043852433
aF0.4505181962470476
aa(lp74
I30
aF0.3922565528536588
aF0.7807904825554787
aag72
a(lp75
F19.4
aF0.2543701050771515
aF0.17573730844063318
aag67
ag68
a(lp76
I30
aF0.5143718304806152
aF0.4281824680330617
aa(lp77
I30
aF0.5101795424393148
aI1
aag71
ag67
ag68
a(lp78
F28.0
aF0.9856312091015037
aF0.6300004651373956
aag77
ag71
ag72
a(lp79
I30
aI1
aF0.7309311371702377
aasF0.8888888888888888
(lp80
(lp81
I18
aF0.7662130147113746
aF0.09375886662085897
aa(lp82
I30
aF0.25480645550436076
aF0.8607360186569877
aa(lp83
I21
aF0.06055961619805672
aF0.9904113475500084
aa(lp84
I14
aF0.47212228516073074
aF0.7181710784439603
aag69
ag70
ag81
ag82
a(lp85
F12.0
aF0.046233240778077056
aI0
aag82
ag74
ag72
ag75
ag69
ag82
ag74
assI5
(dp86
F0.8888888888888888
(lp87
(lp88
I18
aF0.9136227966131865
aF0.8716591235911937
aa(lp89
F10.100000000000001
aF0.49466640624141744
aF0.7536482290811688
aa(lp90
I28
aF0.909215392321189
aF0.6864643498869636
aa(lp91
F19.4
aI1
aF0.9398721381804226
aa(lp92
F23.0
aF0.8044879724553318
aF0.7191650531217864
aasF0.7777777777777778
(lp93
(lp94
I25
aF0.2238079253388634
aF0.34151507632487577
aa(lp95
I15
aF0.011795996349391324
aF0.3825473959947463
aa(lp96
I19
aF0.3530271664517467
aF0.05275755476581623
aa(lp97
I15
aF0.2922304145868805
aF0.08775781812185757
aa(lp98
I20
aF0.3665342284480365
aF0.7025520380059153
aa(lp99
I17
aF0.3778259294392282
aF0.4799945596936448
aa(lp100
I26
aF0.24253392955074193
aF0.3725944738975028
aag94
ag88
a(lp101
F13.4
aF0.1275973316919115
aF0.1754162570285862
aag99
ag100
ag94
a(lp102
F13.7
aF0.4612386283699769
aF0.7777320980632146
aag97
ag98
ag99
a(lp103
F16.4
aI0
aF0.3146924491440495
aa(lp104
F16.6
aF0.853705936216543
aF0.5970934044909426
aasF0.6666666666666666
(lp105
(lp106
I23
aF0.3338386174348702
aF0.20732067847650348
aa(lp107
F25.3
aF0.23307898615333905
aI0
aag98
ag95
a(lp108
I30
aI0
aF0.0014936408110802768
aag95
ag88
ag96
asF0.5555555555555556
(lp109
g96
ag96
asF1.0
(lp110
g90
a(lp111
I30
aF0.8014027894509336
aF0.5895287115288252
aag90
ag111
a(lp112
I30
aI1
aF0.9319069208463384
aag112
assI6
(dp113
F0.8888888888888888
(lp114
(lp115
F26.9
aF0.954826773477142
aF0.8552822178122319
aasF0.4444444444444444
(lp116
(lp117
F13.5
aF0.5011651894757498
aF0.33488374495265916
aa(lp118
I19
aF0.3249567190928244
aF0.42540627514073837
aa(lp119
I10
aF0.7740350383859576
aF0.04658792313545098
aasF0.7777777777777778
(lp120
(lp121
I29
aF0.8399096973165057
aF0.49954824056257474
aa(lp122
I24
aF0.73955942064018
aF0.5349802205917618
aag121
ag115
ag121
asF0.6666666666666666
(lp123
(lp124
I12
aF0.17264237139715521
aF0.14922498229803816
aa(lp125
I19
aF0.17054017009404465
aF0.8906263304822414
aag122
a(lp126
I22
aF0.006372918435992747
aF0.3824349344113025
aa(lp127
I10
aF0.5453421414068423
aF0.0014581179893780188
aa(lp128
I14
aF0.9058092261634192
aF0.05335749378466348
aag122
asF0.5555555555555556
(lp129
g118
a(lp130
I27
aF0.5132055587749126
aF0.4350770903538991
aag128
a(lp131
I14
aF0.7909224432108428
aF0.5646369853105834
aa(lp132
I27
aF0.265427549570907
aF0.5376055264478696
aag124
a(lp133
F16.9
aF0.39354883055382683
aF0.9207062689928465
aa(lp134
F10.5
aF0.5074957507811244
aF0.3023097707079992
aag130
ag131
ag132
ag130
a(lp135
I10
aI0
aF0.0973256065027527
aag128
ag131
ag132
ag126
ag118
ag130
ag125
ag128
ag131
ag132
a(lp136
F24.029999999999998
aF0.15706006542186612
aF0.6066463324656316
aassI7
(dp137
F0.4444444444444444
(lp138
(lp139
I10
aF0.7707346752847072
aF0.7122552746141255
aa(lp140
I27
aF0.08735607935820688
aF0.14114297156108668
aa(lp141
I26
aF0.09390564196939943
aF0.3859018685221035
aa(lp142
I18
aF0.035388411081196836
aF0.19892413727507463
aa(lp143
I27
aF0.0383341597315674
aF0.7151098702397645
aag139
a(lp144
I17
aF0.8609559046478654
aF0.811345162423244
aa(lp145
I10
aF0.8481038851697392
aF0.0786369211842507
aag142
a(lp146
F12.1
aF0.7982456276734133
aF0.31208833857070184
aag143
a(lp147
F14.2
aI1
aF0.2957716120567382
aa(lp148
I28
aF0.255147091171685
aF0.5381826368722089
aag144
ag141
ag139
a(lp149
F26.0
aF0.05959029823075179
aF0.7876786975971779
aag141
a(lp150
F13.700000000000001
aI0
aF0.38590708233946575
aag143
a(lp151
I10
aI1
aF0.061106710234292094
aasF0.2222222222222222
(lp152
g139
asF0.3333333333333333
(lp153
g144
a(lp154
I10
aF0.9655575934391739
aF0.35656468690203624
aa(lp155
I24
aF0.3263731733092935
aF0.20468061203442156
aa(lp156
F21.4
aF0.6894525873821513
aF0.8254582549786376
aag148
ag154
ag142
ag146
ag143
ag140
ag144
ag154
ag142
asF0.6666666666666666
(lp157
(lp158
I29
aF0.9950453103228832
aF0.3625922592164411
aasF0.5555555555555556
(lp159
g148
ag158
ag154
ag158
assI8
(dp160
F0.2222222222222222
(lp161
(lp162
I16
aF0.23899959642659363
aF0.36306137613446443
aa(lp163
I10
aF0.8910502884997893
aF0.1685177803996215
aa(lp164
I17
aF0.4732603906320634
aF0.26096160685038927
aa(lp165
I13
aF0.9505518840039546
aF0.5169499823693506
aa(lp166
I16
aF0.3112524140327254
aF0.4893147897480663
aa(lp167
I26
aF0.7541276506764887
aF0.5525588371025079
aa(lp168
F19.8
aF0.5827727935970914
aI1
aa(lp169
I15
aF0.7838026184971465
aF0.7575682342764501
aag164
a(lp170
I17
aF0.6223290231777044
aF0.6387752787669899
aag165
ag166
ag167
a(lp171
I21
aF0.4167514912311877
aF0.926853361140572
aa(lp172
F17.4
aF0.02162003692103545
aF0.015436736936221829
aa(lp173
F16.5
aF0.8810710626526473
aF0.5135692163879988
aa(lp174
F14.2
aF0.4266254502620629
aF0.8985784169784856
aag170
ag166
ag167
ag162
ag164
ag166
ag171
asF0.3333333333333333
(lp175
g169
a(lp176
I10
aF0.8830609347132998
aF0.7623978999640956
aag170
ag171
ag163
ag176
ag169
ag176
ag165
ag171
ag163
ag169
a(lp177
I10
aF0.7787128919313511
aF0.49792832962247513
aa(lp178
I10
aI1
aF0.7817425347989946
aa(lp179
I10
aF0.31231635752707015
aF0.5945044456188808
aag167
assI9
(dp180
F0.2222222222222222
(lp181
(lp182
I23
aF0.31803079971200043
aF0.2268359060400701
aa(lp183
I15
aF0.3685735956377808
aF0.36456831097525433
aa(lp184
I17
aF0.9773348108887734
aF0.09518095236898749
aa(lp185
I20
aF0.7434407902440467
aF0.3520575492597794
aa(lp186
I27
aF0.3656773271712055
aF0.1295452411521375
aag183
ag184
ag185
ag186
a(lp187
I10
aF0.9987954090482676
aF0.6516465097739002
aag184
a(lp188
F15.6
aF0.3990570273351305
aI0
aag186
a(lp189
I14
aF0.8865541658076487
aF0.7204324983678253
aa(lp190
F12.5
aF0.3241913716942848
aF0.24258604167486902
aag187
ag184
ag185
a(lp191
I30
aF0.3597727785202317
aF0.34206811721125585
aag189
asF0.3333333333333333
(lp192
(lp193
I10
aF0.39633532454191145
aF0.92449603744487
aasF0.1111111111111111
(lp194
(lp195
I12
aF0.06044304644530163
aF0.3653162987259465
aag193
ag191
ag189
a(lp196
I23
aF0.5818335075552281
aF0.9332151415315637
aag182
ag195
ag191
ag189
ag196
ag182
ag183
a(lp197
F26.9
aF0.3471129974782866
aI0
aag191
ag196
ag183
a(lp198
I30
aF0.7859056291959265
aF0.1534969661868691
aag186
ag196
asss.
