(dp0
S'pitsC'
p1
(dp2
I1
cnumpy.core.multiarray
scalar
p3
(cnumpy
dtype
p4
(S'f8'
p5
I0
I1
tp6
Rp7
(I3
S'<'
p8
NNNI-1
I-1
I0
tp9
bS'\x00\x00\x00\x00\x00\x00\xf0?'
p10
tp11
Rp12
sI2
g3
(g7
S'\x00\x00\x00\x00\x00\x00\xf0?'
p13
tp14
Rp15
sI3
g3
(g7
S'\x00\x00\x00\x00\x00\x00\xf0?'
p16
tp17
Rp18
sI4
g3
(g7
S'\x00\x00\x00\x00\x00\x00\xf0?'
p19
tp20
Rp21
sI5
g3
(g7
S'\x00\x00\x00\x00\x00\x00\xf0?'
p22
tp23
Rp24
sI6
g3
(g7
S'\x00\x00\x00\x00\x00\x00\xf0?'
p25
tp26
Rp27
sI7
g3
(g7
S'\x00\x00\x00\x00\x00\x00\xf0?'
p28
tp29
Rp30
sI8
g3
(g7
S'\x00\x00\x00\x00\x00\x00\xf0?'
p31
tp32
Rp33
sI9
g3
(g7
S'\x00\x00\x00\x00\x00\x00\xf0?'
p34
tp35
Rp36
ss.(dp0
S'pitsC'
p1
(dp2
I1
(dp3
cnumpy.core.multiarray
scalar
p4
(cnumpy
dtype
p5
(S'f8'
p6
I0
I1
tp7
Rp8
(I3
S'<'
p9
NNNI-1
I-1
I0
tp10
bS'\x00\x00\x00\x00\x00\x00\xf0?'
p11
tp12
Rp13
(lp14
(lp15
I12
aF0.8474337369372327
aF0.763774618976614
aa(lp16
I15
aF0.49543508709194095
aF0.4494910647887381
aa(lp17
I23
aF0.7887233511355132
aF0.0938595867742349
aa(lp18
I10
aF0.8357651039198697
aF0.43276706790505337
aa(lp19
I26
aF0.0021060533511106927
aF0.4453871940548014
aa(lp20
I25
aF0.22876222127045265
aF0.9452706955539223
aa(lp21
I28
aF0.030589983033553536
aF0.0254458609934608
aa(lp22
I21
aF0.9391491627785106
aF0.38120423768821243
aa(lp23
I14
aF0.4221165755827173
aF0.029040787574867943
aa(lp24
I14
aF0.43788759365057206
aF0.49581224138185065
aag15
ag16
a(lp25
F28.8
aI0
aF0.16277879782367166
aa(lp26
I10
aI1
aF0.41672887744098513
aag19
ag20
ag21
a(lp27
F15.4
aF0.73384737794801
aF0.6301462722983646
aa(lp28
F24.5
aF0.2688209948131036
aF0.013739063174881473
aag24
ag15
ag16
ag17
ag18
ag19
ag20
ag21
ag22
a(lp29
F21.1
aF0.6380974791725805
aF0.6944180577411275
aag24
ag15
ag16
ag17
ag18
ag19
a(lp30
I10
aF0.4965506385476757
aF0.8440002215621608
aag21
ag22
a(lp31
F14.7
aF0.26345725803917797
aI0
aag24
assI2
(dp32
g4
(g8
S'\x00\x00\x00\x00\x00\x00\xf0?'
p33
tp34
Rp35
(lp36
(lp37
I28
aF0.46543569496300896
aF0.7718615427972865
aa(lp38
I14
aF0.7573272961144836
aF0.22132021255047019
aa(lp39
I29
aF0.03888766561980128
aF0.103421699418345
aa(lp40
I20
aF0.7930967542162969
aF0.19653922826572323
aa(lp41
I11
aF0.6981823263208932
aF0.9683232562285766
aa(lp42
I28
aF0.7034861473208497
aF0.9514234711937138
aa(lp43
I30
aF0.6486600292322341
aF0.8044875796730819
aa(lp44
I11
aF0.9091567150400195
aF0.7711891301058679
aa(lp45
I26
aF0.30303137863215934
aF0.07901154450113812
aa(lp46
I21
aF0.034564274172189546
aF0.7904379410158177
aag37
a(lp47
F17.3
aF0.38121035302247264
aF0.7060068599127031
aag39
ag40
ag41
ag42
ag43
ag44
a(lp48
I30
aF0.6107490741508471
aF0.21984814296277308
aag46
ag37
a(lp49
I10
aI1
aF0.5699408463028335
aa(lp50
F15.899999999999999
aI1
aF0.7581856513528961
aag40
a(lp51
F28.0
aF0.31775362285962055
aF0.9098554310831826
aa(lp52
F21.4
aF0.9213537882047544
aF0.21937745407878007
aag43
ag44
a(lp53
F21.7
aF0.4614049287008925
aI1
aag46
ag37
ag38
ag39
ag40
ag41
a(lp54
I30
aF0.5164910908341832
aI0
aag43
ag44
a(lp55
F16.6
aF0.8464292902132065
aI1
aag46
assI3
(dp56
g4
(g8
S'\x00\x00\x00\x00\x00\x00\xf0?'
p57
tp58
Rp59
(lp60
(lp61
I20
aF0.6640631687391619
aF0.8005896889847354
aa(lp62
I25
aF0.0983793193664948
aF0.4514586575424372
aa(lp63
I17
aF0.057162299319621135
aF0.34813841262614764
aa(lp64
I25
aF0.6019693739701631
aF0.16575887179559345
aa(lp65
I28
aF0.0850092340545695
aF0.9160341925066497
aa(lp66
I11
aF0.24042095210643788
aF0.21257075191328823
aa(lp67
I22
aF0.10519347321393913
aF0.03684419317324272
aa(lp68
I11
aF0.2323417380308097
aF0.13963162799190576
aa(lp69
I11
aF0.5112381298670462
aF0.3077421618312599
aa(lp70
I15
aF0.6284851084631378
aF0.16036110576657547
aag61
ag62
ag63
a(lp71
I10
aF0.6376794923100244
aF0.058820475526565705
aag65
ag66
a(lp72
F24.8
aF0.18726635823120322
aI0
aag68
ag69
ag70
ag61
ag62
ag63
ag64
ag65
ag66
ag67
ag68
a(lp73
I10
aF0.2451908597996489
aI0
aag70
ag61
a(lp74
F15.0
aF0.27597207024056997
aF0.36035095578936605
aa(lp75
I10
aF0.36304655920426987
aF0.06661600266931891
aag64
a(lp76
F15.2
aF0.10406068108003799
aF0.23452899049090736
aag66
ag67
ag68
ag69
ag70
assI4
(dp77
g4
(g8
S'\x00\x00\x00\x00\x00\x00\xf0?'
p78
tp79
Rp80
(lp81
(lp82
I18
aF0.5385649362922991
aF0.5478963304857448
aa(lp83
I10
aF0.5436130214687178
aF0.6255936080259135
aa(lp84
I20
aF0.9752473942873194
aF0.9099962042147303
aa(lp85
I12
aF0.9216753674191711
aF0.41877274503411255
aag82
ag83
a(lp86
F25.0
aF0.8407089972653201
aF0.7469781478179166
aag84
ag85
ag82
ag83
ag86
a(lp87
I10
aF0.7529106973486757
aF0.5227163452286505
aa(lp88
F12.7
aF0.9233699610612021
aF0.21082170520926788
aag85
ag82
ag83
a(lp89
I10
aI1
aF0.14516964264964372
aa(lp90
F22.2
aF0.8457590121360437
aF0.2621541125969317
aag88
ag85
asg4
(g8
S'9\x8e\xe38\x8e\xe3\xe8?'
p91
tp92
Rp93
(lp94
(lp95
I24
aF0.3802550869438045
aF0.33998128573168906
aag95
a(lp96
I25
aF0.3826759350038488
aF0.04290837169619666
aag95
a(lp97
I17
aF0.373916501015919
aF0.46756232371695405
aag97
asg4
(g8
S'\x1c\xc7q\x1c\xc7q\xdc?'
p98
tp99
Rp100
(lp101
(lp102
I29
aF0.1791617442193273
aF0.4337699465311522
aag102
ag102
asg4
(g8
S'\xaa\xaa\xaa\xaa\xaa\xaa\xea?'
p103
tp104
Rp105
(lp106
(lp107
I12
aF0.1957413029829751
aF0.856319800225873
aasg4
(g8
S'r\x1c\xc7q\x1c\xc7\xe1?'
p108
tp109
Rp110
(lp111
g102
a(lp112
I26
aF0.023122169086111755
aF0.9014144772715745
aa(lp113
I30
aI0
aF0.3504793267796168
aa(lp114
F25.61
aF0.31605382635880164
aF0.8428718335430081
aasg4
(g8
S'\x1c\xc7q\x1c\xc7q\xec?'
p115
tp116
Rp117
(lp118
g107
ag96
ag96
asg4
(g8
S'UUUUUU\xe5?'
p119
tp120
Rp121
(lp122
g97
asg4
(g8
S'\xc7q\x1c\xc7q\x1c\xe7?'
p123
tp124
Rp125
(lp126
g97
assI5
(dp127
g4
(g8
S'\x00\x00\x00\x00\x00\x00\xf0?'
p128
tp129
Rp130
(lp131
(lp132
I14
aF0.9638005364355968
aF0.9306315445784462
aa(lp133
I25
aF0.9833425899045791
aF0.3640628393687786
aa(lp134
I28
aF0.8557191534753564
aF0.34419515950154556
aa(lp135
I13
aF0.9656573151253962
aF0.9108944628682187
aa(lp136
I24
aF0.5907130326343177
aF0.7754844690412083
aa(lp137
F14.7
aI1
aF0.6426364038077454
aag132
ag133
a(lp138
F28.0
aF0.4996707118780943
aI0
aag136
ag137
ag132
ag133
ag135
a(lp139
F13.299999999999999
aI1
aF0.8596003087504804
aag137
a(lp140
F28.7
aI1
aF0.05620001873084479
aa(lp141
I30
aF0.4491783237754199
aF0.03424672386906691
aag132
ag133
ag134
a(lp142
F26.599999999999998
aF0.6384647060550166
aF0.028982986508339192
aag136
asg4
(g8
S'9\x8e\xe38\x8e\xe3\xe8?'
p143
tp144
Rp145
(lp146
(lp147
I19
aF0.059873682472742606
aF0.5632645790795763
aag141
a(lp148
I24
aF0.13446682566671586
aF0.5093894059438512
aag141
a(lp149
F21.0
aI0
aI0
aa(lp150
F14.69
aF0.23546341823396635
aF0.7182982769581912
aasg4
(g8
S'\x1c\xc7q\x1c\xc7q\xec?'
p151
tp152
Rp153
(lp154
g141
a(lp155
I14
aF0.07013930610173802
aF0.858820970792578
aasg4
(g8
S'r\x1c\xc7q\x1c\xc7\xe1?'
p156
tp157
Rp158
(lp159
g148
asg4
(g8
S'\x1c\xc7q\x1c\xc7q\xdc?'
p160
tp161
Rp162
(lp163
(lp164
I30
aF0.39979413803829317
aI0
aasg4
(g8
S'UUUUUU\xe5?'
p165
tp166
Rp167
(lp168
(lp169
I14
aF0.4551599055823652
aF0.14562618219301537
aag148
ag169
ag155
ag169
ag169
asg4
(g8
S'\xc7q\x1c\xc7q\x1c\xe7?'
p170
tp171
Rp172
(lp173
g155
assI6
(dp174
g4
(g8
S'\x00\x00\x00\x00\x00\x00\xf0?'
p175
tp176
Rp177
(lp178
(lp179
I29
aF0.8756904865636198
aF0.07450873993573381
aa(lp180
I15
aF0.6544562839796195
aF0.07469943650661703
aa(lp181
I18
aF0.7176998640196601
aF0.4811851792752908
aa(lp182
I29
aF0.9745941665829185
aF0.994513241252799
aa(lp183
F25.4
aF0.8500782180946038
aF0.8919383052146748
aag179
a(lp184
F16.6
aF0.8746558669388499
aF0.2096230061990817
aa(lp185
I30
aI1
aF0.625279919035975
aag182
ag183
ag179
ag180
ag181
a(lp186
F23.299999999999997
aI1
aI1
aag182
ag183
ag184
ag180
ag181
a(lp187
I30
aI1
aF0.4338383833199896
aag182
asg4
(g8
S'9\x8e\xe38\x8e\xe3\xe8?'
p188
tp189
Rp190
(lp191
(lp192
I13
aF0.2863934479562813
aF0.6019849145311967
aa(lp193
I21
aF0.3555820972383711
aF0.28439670150545115
aasg4
(g8
S'r\x1c\xc7q\x1c\xc7\xe1?'
p194
tp195
Rp196
(lp197
(lp198
I17
aF0.4302334226664912
aF0.4626453980440587
aag198
a(lp199
F29.68
aF0.35630633097571
aF0.18981671512110765
aasg4
(g8
S'\x1c\xc7q\x1c\xc7q\xdc?'
p200
tp201
Rp202
(lp203
(lp204
F21.0
aF0.39437437192498453
aF0.341382118429949
aa(lp205
F10.720000000000002
aF0.5419722354525576
aI0
aasg4
(g8
S'UUUUUU\xd5?'
p206
tp207
Rp208
(lp209
g198
asg4
(g8
S'\x1c\xc7q\x1c\xc7q\xec?'
p210
tp211
Rp212
(lp213
g193
asg4
(g8
S'UUUUUU\xe5?'
p214
tp215
Rp216
(lp217
(lp218
I16
aF0.2969346054128885
aF0.37513133947636135
aag192
a(lp219
I10
aF0.6866219446981092
aF0.004260625313207589
aag193
a(lp220
I17
aF0.37481588739990057
aF0.3812376595804904
aag192
a(lp221
F23.1
aF0.36296090745799614
aF0.1255991989670664
aag192
ag193
ag198
assI7
(dp222
g4
(g8
S'\x00\x00\x00\x00\x00\x00\xf0?'
p223
tp224
Rp225
(lp226
(lp227
I27
aF0.25748485131915233
aF0.2843125615308152
aa(lp228
I24
aF0.7459389482207284
aF0.9083022517925382
aa(lp229
I22
aF0.10261686801820324
aF0.5897306667559925
aa(lp230
I26
aF0.800302777260654
aF0.48060566010049843
aag228
ag228
a(lp231
F27.4
aF0.8544614846094647
aF0.5498745084008219
aa(lp232
F19.3
aF0.6695690495605676
aF0.5474362615835138
aag228
ag230
asg4
(g8
S'9\x8e\xe38\x8e\xe3\xe8?'
p233
tp234
Rp235
(lp236
(lp237
I20
aF0.025247286091330867
aF0.4907751691841018
aa(lp238
I12
aF0.12333956242264343
aF0.8673731801516962
aag237
a(lp239
I21
aF0.5787880909040016
aF0.7743069046037007
aa(lp240
F27.0
aF0.010741400008222735
aF0.29642540980710924
aag237
asg4
(g8
S'r\x1c\xc7q\x1c\xc7\xe1?'
p241
tp242
Rp243
(lp244
g227
a(lp245
F27.7
aI0
aF0.21553862085510914
aa(lp246
I30
aF0.2774865532753174
aF0.06363315344318338
aag227
a(lp247
F27.6
aI0
aF0.8313841331414014
aa(lp248
F28.3
aI0
aF0.7021807666480057
aasg4
(g8
S'\xe48\x8e\xe38\x8e\xe3?'
p249
tp250
Rp251
(lp252
(lp253
I11
aF0.6913085797916537
aF0.9656216668312763
aasg4
(g8
S'\x1c\xc7q\x1c\xc7q\xdc?'
p254
tp255
Rp256
(lp257
(lp258
I29
aF0.015386823570528119
aF0.5319965189569735
aa(lp259
I25
aF0.29199243935842556
aF0.25798291282017594
aag259
a(lp260
F20.6
aI0
aF0.5033461688083841
aag253
ag253
asg4
(g8
S'8\x8e\xe38\x8e\xe3\xe8?'
p261
tp262
Rp263
(lp264
g238
asg4
(g8
S'UUUUUU\xe5?'
p265
tp266
Rp267
(lp268
g239
a(lp269
F13.100000000000001
aF0.3675593565549063
aF0.4927465756564818
aag258
ag258
ag247
ag229
asg4
(g8
S'\x1c\xc7q\x1c\xc7q\xec?'
p270
tp271
Rp272
(lp273
(lp274
F16.6
aF0.2969276926582223
aF0.7960043968785673
aag238
asg4
(g8
S'\xc7q\x1c\xc7q\x1c\xe7?'
p275
tp276
Rp277
(lp278
g258
asg4
(g8
S'UUUUUU\xd5?'
p279
tp280
Rp281
(lp282
g253
assI8
(dp283
g4
(g8
S'\x00\x00\x00\x00\x00\x00\xf0?'
p284
tp285
Rp286
(lp287
(lp288
I13
aF0.46343809335408115
aF0.9458603834953143
aa(lp289
I11
aF0.30836561034287624
aF0.7588775302099705
aag288
asg4
(g8
S'9\x8e\xe38\x8e\xe3\xe8?'
p290
tp291
Rp292
(lp293
(lp294
I12
aF0.24821745941833206
aF0.7013075986843741
aag294
a(lp295
I16
aF0.5312478716955594
aF0.18298468017865954
aa(lp296
F12.100000000000001
aF0.43400122366140514
aF0.9582208661896008
aa(lp297
F10.3
aF0.1703403149124978
aI1
aag294
asg4
(g8
S'r\x1c\xc7q\x1c\xc7\xe1?'
p298
tp299
Rp300
(lp301
(lp302
I26
aF0.579313025411243
aF0.9542261522927236
aa(lp303
I17
aF0.7151528858710063
aF0.4716509782537175
aa(lp304
I18
aF0.14627332656302838
aF0.7774113959918926
aag302
a(lp305
F21.8
aF0.6506739184099555
aF0.9009534941774606
aasg4
(g8
S'\x1c\xc7q\x1c\xc7q\xdc?'
p306
tp307
Rp308
(lp309
g302
a(lp310
I17
aF0.5602102079130407
aF0.9981470901263093
aa(lp311
F18.7
aF0.16654696191526525
aI1
aasg4
(g8
S'\x1c\xc7q\x1c\xc7q\xcc?'
p312
tp313
Rp314
(lp315
g310
asg4
(g8
S'UUUUUU\xd5?'
p316
tp317
Rp318
(lp319
(lp320
I20
aF0.5961934699523043
aF0.5473696051547637
aag320
ag310
ag320
ag320
asg4
(g8
S'UUUUUU\xe5?'
p321
tp322
Rp323
(lp324
g288
a(lp325
F13.5
aF0.40419262496616243
aI1
aa(lp326
F17.2
aF0.5284529897610326
aF0.5107689105130673
aasg4
(g8
S'\x8e\xe38\x8e\xe38\xee?'
p327
tp328
Rp329
(lp330
(lp331
I19
aF0.39901447648033506
aF0.8971886895259971
aasg4
(g8
S'\x1c\xc7q\x1c\xc7q\xec?'
p332
tp333
Rp334
(lp335
g288
ag331
ag296
ag304
ag289
ag310
ag304
a(lp336
F10.3
aF0.2880919749906394
aF0.18826384324661571
aag296
ag304
asg4
(g8
S'\xc7q\x1c\xc7q\x1c\xe7?'
p337
tp338
Rp339
(lp340
g295
ag331
asg4
(g8
S'VUUUUU\xe5?'
p341
tp342
Rp343
(lp344
g295
assI9
(dp345
g4
(g8
S'\x00\x00\x00\x00\x00\x00\xe0?'
p346
tp347
Rp348
(lp349
(lp350
I30
aF0.24568499747700068
aI1
aasg4
(g8
S'\x00\x00\x00\x00\x00\x00\xf0?'
p351
tp352
Rp353
(lp354
(lp355
I29
aF0.18287640000784322
aF0.986532381200136
aa(lp356
I24
aF0.9575025658779731
aF0.3609499041859131
aasg4
(g8
S'9\x8e\xe38\x8e\xe3\xe8?'
p357
tp358
Rp359
(lp360
(lp361
I14
aF0.5485998911591278
aF0.8354978971114104
aa(lp362
I10
aF0.6560558631605509
aF0.5364169161526395
aa(lp363
F11.9
aF0.41961400331532167
aF0.8203439709784286
aa(lp364
I20
aF0.3363849314384476
aF0.5592738369733204
aag362
asg4
(g8
S'VUUUUU\xe5?'
p365
tp366
Rp367
(lp368
(lp369
F26.5
aF0.4897759871677338
aI1
aasg4
(g8
S'\x1c\xc7q\x1c\xc7q\xcc?'
p370
tp371
Rp372
(lp373
(lp374
I21
aF0.7474148878830303
aF0.3329970450991512
aa(lp375
I12
aF0.854780734218486
aF0.5661933778409044
aag375
a(lp376
I16
aF0.745782430973633
aF0.9206629882981091
aasg4
(g8
S'r\x1c\xc7q\x1c\xc7\xe1?'
p377
tp378
Rp379
(lp380
g375
a(lp381
F17.7
aF0.8486067625404997
aF0.8127737309973176
aasg4
(g8
S'\x1c\xc7q\x1c\xc7q\xec?'
p382
tp383
Rp384
(lp385
g356
a(lp386
I20
aF0.4570176379121893
aF0.8212188009813226
aag386
ag361
asg4
(g8
S'UUUUUU\xe5?'
p387
tp388
Rp389
(lp390
g364
ag362
ag361
ag355
ag386
asg4
(g8
S'\x1c\xc7q\x1c\xc7q\xdc?'
p391
tp392
Rp393
(lp394
(lp395
I17
aF0.8576486525668472
aF0.8572353686950248
aag374
a(lp396
F29.4
aF0.2750743110917276
aF0.423504953852729
aag395
a(lp397
F22.8
aF0.13424957629543707
aF0.4896629058515699
aag374
ag395
asg4
(g8
S'\xc7q\x1c\xc7q\x1c\xe7?'
p398
tp399
Rp400
(lp401
(lp402
I13
aF0.5615168769110528
aF0.8990145223938493
aasg4
(g8
S'UUUUUU\xd5?'
p403
tp404
Rp405
(lp406
g376
a(lp407
F29.6
aF0.5946255039319462
aF0.35610622557860433
aag376
a(lp408
F26.2
aI0
aI1
aa(lp409
F15.6
aF0.7196208746966936
aF0.7976198048643357
aag395
ag375
ag376
asss.(dp0
S'pitsC'
p1
F38692.46067404747
s.
