(dp0
S'pitsD'
p1
(dp2
I1
cnumpy.core.multiarray
scalar
p3
(cnumpy
dtype
p4
(S'f8'
p5
I0
I1
tp6
Rp7
(I3
S'<'
p8
NNNI-1
I-1
I0
tp9
bS'\x00\x00\x00\x00\x00\x00\xf0?'
p10
tp11
Rp12
sI2
g3
(g7
S'\x00\x00\x00\x00\x00\x00\xf0?'
p13
tp14
Rp15
sI3
g3
(g7
S'\x00\x00\x00\x00\x00\x00\xf0?'
p16
tp17
Rp18
sI4
g3
(g7
S'\x00\x00\x00\x00\x00\x00\xf0?'
p19
tp20
Rp21
sI5
g3
(g7
S'\x00\x00\x00\x00\x00\x00\xf0?'
p22
tp23
Rp24
sI6
g3
(g7
S'\x00\x00\x00\x00\x00\x00\xf0?'
p25
tp26
Rp27
sI7
g3
(g7
S'\x00\x00\x00\x00\x00\x00\xf0?'
p28
tp29
Rp30
sI8
g3
(g7
S'\x00\x00\x00\x00\x00\x00\xf0?'
p31
tp32
Rp33
sI9
g3
(g7
S'\x1c\xc7q\x1c\xc7q\xbc?'
p34
tp35
Rp36
ss.(dp0
S'pitsD'
p1
(dp2
I1
(dp3
cnumpy.core.multiarray
scalar
p4
(cnumpy
dtype
p5
(S'f8'
p6
I0
I1
tp7
Rp8
(I3
S'<'
p9
NNNI-1
I-1
I0
tp10
bS'\x00\x00\x00\x00\x00\x00\xf0?'
p11
tp12
Rp13
(lp14
(lp15
I12
aF0.8474337369372327
aF0.763774618976614
aa(lp16
I15
aF0.49543508709194095
aF0.4494910647887381
aa(lp17
I23
aF0.7887233511355132
aF0.0938595867742349
aa(lp18
I10
aF0.8357651039198697
aF0.43276706790505337
aa(lp19
I26
aF0.0021060533511106927
aF0.4453871940548014
aa(lp20
I25
aF0.22876222127045265
aF0.9452706955539223
aa(lp21
I28
aF0.030589983033553536
aF0.0254458609934608
aa(lp22
I21
aF0.9391491627785106
aF0.38120423768821243
aa(lp23
I14
aF0.4221165755827173
aF0.029040787574867943
aa(lp24
I14
aF0.43788759365057206
aF0.49581224138185065
aa(lp25
I30
aF0.35298915174066764
aF0.3651615914692547
aa(lp26
I10
aF0.7318949592126966
aF0.20436975684589725
aa(lp27
F18.4
aF0.5417577383577451
aF0.7242095524410068
aag18
a(lp28
I10
aF0.8470185934373092
aI0
aag20
ag21
a(lp29
F15.4
aF0.13543427528205493
aI0
aa(lp30
I10
aF0.17653154534325854
aF0.310407645800199
aag24
ag15
a(lp31
I10
aI1
aF0.6663290825263273
aa(lp32
I30
aF0.443393027516932
aF0.0909868772604792
aag18
ag19
ag20
ag21
a(lp33
F18.7
aI0
aI1
aag23
ag24
a(lp34
F17.5
aF0.19965658187102195
aF0.50751903920043
aag16
ag17
a(lp35
I10
aF0.7750648957361841
aF0.7998686001284027
aag19
ag20
ag21
ag22
a(lp36
F13.8
aF0.8123235566685839
aF0.9364366072490986
aag24
assI2
(dp37
g4
(g8
S'\x00\x00\x00\x00\x00\x00\xf0?'
p38
tp39
Rp40
(lp41
(lp42
I18
aF0.22624767438094484
aF0.25109225611344044
aa(lp43
I24
aF0.5502768495937708
aF0.7950986481584981
aa(lp44
I20
aF0.47585660950160724
aF0.5596755795090438
aa(lp45
I23
aF0.9105540491014825
aF0.07353340341826675
aa(lp46
I15
aF0.17411035159112453
aF0.9260852841475194
aa(lp47
I23
aF0.45558974017150033
aF0.8450166902179971
aa(lp48
I16
aF0.10904022862340823
aF0.3626562471289151
aa(lp49
I29
aF0.7907271057005484
aF0.9404785871874104
aa(lp50
I28
aF0.5838628550998931
aF0.5097700862328037
aa(lp51
I15
aF0.9017848948075498
aF0.7131232523521572
aag42
ag43
ag44
ag45
ag46
a(lp52
I30
aF0.27152624685465854
aF0.6020954927388916
aa(lp53
I10
aF0.3550958602730535
aF0.3052734700644765
aag49
a(lp54
F25.9
aF0.5980496636309679
aF0.31003130873653645
aag51
ag42
ag43
ag44
ag45
a(lp55
F19.2
aF0.40870650746145815
aF0.9929086120261088
aa(lp56
F17.1
aF0.4783985593110372
aF0.5857857608839756
aa(lp57
F25.799999999999997
aF0.03129977624850727
aF0.5218049815135923
aag49
ag50
a(lp58
I30
aI1
aF0.3073840956353499
aa(lp59
F26.9
aI1
aI1
aag43
ag44
a(lp60
F25.2
aF0.3270913884851538
aF0.37185655356671365
aa(lp61
F29.1
aF0.9530374234556054
aF0.9641512175499904
aag47
a(lp62
F27.2
aF0.37171087979084644
aI1
aag49
ag50
ag51
assI3
(dp63
g4
(g8
S'\x00\x00\x00\x00\x00\x00\xf0?'
p64
tp65
Rp66
(lp67
(lp68
I20
aF0.48759204048113003
aF0.5460932362163283
aa(lp69
I12
aF0.9502203066894365
aF0.9302556397849174
aa(lp70
I26
aF0.9176069414737208
aF0.8846824855413863
aa(lp71
I24
aF0.7686402998653644
aF0.7727418308387641
aa(lp72
I27
aF0.9676126690637021
aF0.013121714172764976
aa(lp73
I17
aF0.9801195166360864
aF0.4220033691393299
aa(lp74
I14
aF0.4917085881767118
aF0.07512164856190917
aa(lp75
I10
aF0.6469866600151932
aF0.46540332321173083
aa(lp76
I10
aF0.9679448629741004
aI1
aag70
ag71
a(lp77
F26.3
aF0.8585694501070156
aF0.6305372124849524
aag73
a(lp78
F11.9
aF0.8364778214851813
aI0
aa(lp79
F18.4
aI1
aF0.9450522935309437
aag69
ag70
ag71
ag72
ag73
a(lp80
F19.8
aI1
aF0.580657385375035
aag68
ag69
ag70
ag71
a(lp81
F11.3
aF0.9152162973764495
aI1
aag73
a(lp82
F28.8
aI1
aI1
aasg4
(g8
S'9\x8e\xe38\x8e\xe3\xe8?'
p83
tp84
Rp85
(lp86
(lp87
I15
aF0.23867257182838508
aF0.6521075790264439
aag87
ag87
asg4
(g8
S'\x1c\xc7q\x1c\xc7q\xec?'
p88
tp89
Rp90
(lp91
(lp92
I29
aF0.27444808158161293
aF0.11066604880716291
aa(lp93
I24
aF0.1894555285583036
aF0.1374697364105094
aag92
a(lp94
F25.4
aI0
aF0.20575077065458797
aag87
ag92
ag93
ag92
a(lp95
F24.1
aI0
aF0.48374611423765723
aassI4
(dp96
g4
(g8
S'\x00\x00\x00\x00\x00\x00\xf0?'
p97
tp98
Rp99
(lp100
(lp101
I10
aF0.7719208934920789
aF0.059182329493193686
aa(lp102
I18
aF0.8939114828847713
aF0.8665617864611299
aa(lp103
I29
aF0.5462285698109528
aF0.188878355874042
aa(lp104
I23
aF0.5649234268799401
aF0.2460848692345725
aa(lp105
I29
aF0.8201188752624659
aF0.5383010289880735
aag101
ag102
a(lp106
I30
aI1
aF0.14542124224104003
aag104
ag101
ag102
ag103
a(lp107
I30
aF0.9055122878373505
aI1
aag105
ag101
ag102
ag103
a(lp108
I10
aI1
aF0.49351617155178384
aag107
ag105
asg4
(g8
S'9\x8e\xe38\x8e\xe3\xe8?'
p109
tp110
Rp111
(lp112
(lp113
I12
aF0.11187021378389272
aF0.07693793499694435
aag113
a(lp114
I10
aF0.12585391901899856
aF0.7572468345869412
aa(lp115
I29
aF0.43235246636235325
aF0.521957281366255
aasg4
(g8
S'\x1c\xc7q\x1c\xc7q\xec?'
p116
tp117
Rp118
(lp119
g115
ag114
a(lp120
F12.3
aI0
aF0.6889388534782808
aag114
ag113
ag115
a(lp121
I10
aF0.5204222908736005
aI0
aasg4
(g8
S'\x1c\xc7q\x1c\xc7q\xdc?'
p122
tp123
Rp124
(lp125
(lp126
I21
aF0.3089793209183672
aF0.43531428786570325
aag126
a(lp127
I20
aF0.08637029598312695
aF0.8073417074446204
aag127
asg4
(g8
S'UUUUUU\xd5?'
p128
tp129
Rp130
(lp131
g127
a(lp132
F27.7
aF0.214558077312685
aF0.5819889247397538
aa(lp133
F22.7
aF0.032604564315415585
aF0.3772068307936248
aag127
asg4
(g8
S'\x8e\xe38\x8e\xe38\xee?'
p134
tp135
Rp136
(lp137
g113
assI5
(dp138
g4
(g8
S'\x00\x00\x00\x00\x00\x00\xf0?'
p139
tp140
Rp141
(lp142
(lp143
I29
aF0.9919710587795902
aF0.32088022145674167
aa(lp144
I28
aF0.5210569709955276
aF0.24395438625422616
aa(lp145
I29
aF0.5254350401724335
aF0.9680486311812341
aag143
ag145
a(lp146
I30
aI1
aF0.4803522323050915
aa(lp147
F21.3
aF0.706137909894272
aI0
aag143
ag144
ag145
a(lp148
F18.7
aF0.6571210904454352
aF0.45471463127941986
aag146
a(lp149
I30
aI1
aI1
aag143
ag144
asg4
(g8
S'9\x8e\xe38\x8e\xe3\xe8?'
p150
tp151
Rp152
(lp153
(lp154
I12
aF0.19938268998247
aF0.6819104077314391
aa(lp155
I14
aF0.28584487307692974
aF0.026102591148423615
aa(lp156
I18
aF0.11710197033626457
aF0.03138096093445164
aa(lp157
F15.9
aI0
aF0.38790425842563336
aag157
ag155
a(lp158
F20.61
aI0
aF0.1602926874942488
aasg4
(g8
S'r\x1c\xc7q\x1c\xc7\xe1?'
p159
tp160
Rp161
(lp162
(lp163
I26
aF0.061255585077949704
aF0.38490884251396795
aa(lp164
I30
aF0.35537142759154394
aF0.6751405144035889
aa(lp165
I26
aF0.16700234666157632
aF0.8301992178727156
aag155
a(lp166
F28.1
aF0.3121584705355497
aF0.4814034318299309
aa(lp167
I15
aF0.1133941296740727
aF0.01613722789944072
aasg4
(g8
S'\xe48\x8e\xe38\x8e\xe3?'
p168
tp169
Rp170
(lp171
g167
asg4
(g8
S'\x1c\xc7q\x1c\xc7q\xec?'
p172
tp173
Rp174
(lp175
(lp176
F25.9
aF0.5184614825319933
aF0.2332837731297185
aag167
asg4
(g8
S'UUUUUU\xe5?'
p177
tp178
Rp179
(lp180
g167
ag163
ag154
ag156
a(lp181
F11.829999999999998
aF0.28096338272862165
aI0
aag157
ag155
ag156
ag156
assI6
(dp182
g4
(g8
S'\x00\x00\x00\x00\x00\x00\xf0?'
p183
tp184
Rp185
(lp186
(lp187
I25
aF0.6382911696623711
aF0.48446950668487376
aa(lp188
I25
aF0.95625242554663
aF0.8859501669082209
aa(lp189
I28
aF0.5552960068485141
aF0.49693164335407614
aag187
ag188
a(lp190
I20
aF0.6204042343550251
aF0.4655696984666826
aa(lp191
I30
aF0.6917237904196194
aI1
aag187
a(lp192
F29.0
aF0.5680389806026834
aF0.5104390378349499
aag191
a(lp193
I30
aF0.759774151224645
aF0.712708530306426
aa(lp194
F24.439999999999998
aI1
aF0.7360635068890469
aag188
asg4
(g8
S'8\x8e\xe38\x8e\xe3\xd8?'
p195
tp196
Rp197
(lp198
(lp199
I20
aF0.4612486286161859
aF0.882162470995943
aasg4
(g8
S'\x1c\xc7q\x1c\xc7q\xcc?'
p200
tp201
Rp202
(lp203
(lp204
I29
aF0.45663005658549594
aF0.8020539786054321
aasg4
(g8
S'r\x1c\xc7q\x1c\xc7\xe1?'
p205
tp206
Rp207
(lp208
(lp209
I19
aF0.028836114802865187
aF0.627331901825159
aa(lp210
I23
aF0.34425337017207913
aF0.30422103627215413
aa(lp211
I29
aF0.12055767504422932
aF0.1482526614764006
aa(lp212
F17.2
aF0.39961215559657537
aF0.691747304353786
aag209
ag212
a(lp213
F29.0
aF0.34522113256830844
aI1
aa(lp214
F25.8
aF0.21709059101826653
aF0.526530166616545
aasg4
(g8
S'r\x1c\xc7q\x1c\xc7\xd1?'
p215
tp216
Rp217
(lp218
g204
asg4
(g8
S'\x1c\xc7q\x1c\xc7q\xec?'
p219
tp220
Rp221
(lp222
g189
ag190
asg4
(g8
S'UUUUUU\xd5?'
p223
tp224
Rp225
(lp226
g199
ag204
a(lp227
I14
aF0.16668869266977693
aF0.6806231627431023
aag204
ag199
a(lp228
I30
aF0.4281332276947015
aF0.719240773698467
aag199
asg4
(g8
S'\x1c\xc7q\x1c\xc7q\xdc?'
p229
tp230
Rp231
(lp232
g209
ag214
ag209
asg4
(g8
S'UUUUUU\xe5?'
p233
tp234
Rp235
(lp236
g211
a(lp237
F16.0
aF0.28004827800312426
aF0.6395765045162849
aag214
a(lp238
F22.7
aF0.08810813215354174
aF0.8933341595351901
aassI7
(dp239
g4
(g8
S'\x00\x00\x00\x00\x00\x00\xf0?'
p240
tp241
Rp242
(lp243
(lp244
I13
aF0.981424317540962
aF0.03615988572420381
aa(lp245
I21
aF0.9156033794748925
aF0.16136600389732547
aa(lp246
I24
aF0.9129240835519049
aF0.8276473200556176
aag244
a(lp247
F21.7
aI1
aF0.4136212088907614
aag247
ag245
ag246
asg4
(g8
S'9\x8e\xe38\x8e\xe3\xe8?'
p248
tp249
Rp250
(lp251
(lp252
I10
aI1
aF0.7599896141776843
aa(lp253
I10
aI1
aF0.43351176926012114
aasg4
(g8
S'r\x1c\xc7q\x1c\xc7\xe1?'
p254
tp255
Rp256
(lp257
(lp258
I29
aF0.044243859352922965
aF0.05513006014355459
aa(lp259
I11
aF0.9078245607767216
aF0.6856244535500446
aa(lp260
I14
aF0.6895206733920549
aF0.019543278133017372
aag260
a(lp261
I16
aF0.08728039811003718
aF0.5753814017393514
aa(lp262
I10
aF0.9759791444522424
aF0.40314080048110723
aag259
asg4
(g8
S'\x1c\xc7q\x1c\xc7q\xec?'
p263
tp264
Rp265
(lp266
(lp267
I15
aF0.8778788368391046
aF0.37990785669506877
aag267
asg4
(g8
S'r\x1c\xc7q\x1c\xc7\xd1?'
p268
tp269
Rp270
(lp271
(lp272
F13.4
aF0.3735672862161495
aF0.646913387314542
aasg4
(g8
S'\xe48\x8e\xe38\x8e\xe3?'
p273
tp274
Rp275
(lp276
(lp277
I10
aF0.9484801702650316
aI1
aasg4
(g8
S'\x1c\xc7q\x1c\xc7q\xdc?'
p278
tp279
Rp280
(lp281
(lp282
I24
aF0.015663797260094703
aF0.7977112722281151
aag258
a(lp283
I30
aF0.3729318390901329
aI0
aa(lp284
F19.5
aF0.0017955838974104132
aF0.30932417150152053
aa(lp285
I30
aF0.04236835220683168
aF0.521526981454359
aag261
ag285
ag260
asg4
(g8
S'UUUUUU\xd5?'
p286
tp287
Rp288
(lp289
(lp290
I12
aF0.4460491227074497
aF0.4062898076349365
aag290
ag258
a(lp291
F28.3
aF0.24857641025715793
aF0.0667616854573851
aa(lp292
F15.4
aF0.6170388369007547
aF0.26016685781262283
aag258
asg4
(g8
S'\x1c\xc7q\x1c\xc7q\xcc?'
p293
tp294
Rp295
(lp296
g261
ag261
a(lp297
F13.4
aF0.497568952442418
aI0
aasg4
(g8
S'UUUUUU\xe5?'
p298
tp299
Rp300
(lp301
g259
ag252
assI8
(dp302
g4
(g8
S'\x00\x00\x00\x00\x00\x00\xf0?'
p303
tp304
Rp305
(lp306
(lp307
I29
aF0.8491225823483953
aF0.5312408153514674
aa(lp308
I22
aF0.9079243402026947
aF0.25051679938960636
aa(lp309
I29
aF0.8207842006615763
aF0.9086364748423984
aag307
a(lp310
F27.2
aF0.840526426025243
aF0.7633862642876619
aag308
ag307
ag308
ag309
ag310
a(lp311
I30
aF0.6891709955558657
aF0.5842255415790688
aag308
ag309
asg4
(g8
S'\x1c\xc7q\x1c\xc7q\xbc?'
p312
tp313
Rp314
(lp315
(lp316
I10
aF0.5654775054584813
aI1
aasg4
(g8
S'\x1c\xc7q\x1c\xc7q\xdc?'
p317
tp318
Rp319
(lp320
(lp321
F24.2
aF0.25454198292839914
aF0.8110015879896636
aag321
asg4
(g8
S'r\x1c\xc7q\x1c\xc7\xd1?'
p322
tp323
Rp324
(lp325
(lp326
I11
aF0.8196193871716128
aF0.5802820970238041
aasg4
(g8
S'\x1c\xc7q\x1c\xc7q\xec?'
p327
tp328
Rp329
(lp330
g311
asg4
(g8
S'UUUUUU\xc5?'
p331
tp332
Rp333
(lp334
(lp335
I10
aF0.5344332616341978
aF0.7531860659401317
aa(lp336
I13
aF0.3654541834292123
aF0.39328466832645537
aasg4
(g8
S'\x1c\xc7q\x1c\xc7q\xcc?'
p337
tp338
Rp339
(lp340
(lp341
I23
aF0.3072287596461548
aF0.07447637306365407
aa(lp342
I13
aF0.2510519228836001
aF0.9298653619056463
aa(lp343
I16
aF0.4417138315806597
aF0.7782464852319354
aag336
a(lp344
I29
aF0.37043998349321094
aF0.2234792770179087
aa(lp345
I14
aF0.42709327618484105
aF0.4275568022868508
aag342
ag343
ag336
ag326
a(lp346
F12.360000000000001
aF0.4888923715048759
aF0.4192378598032966
aag342
ag344
a(lp347
F21.3
aF0.30862651637145355
aF0.4543149853618471
aag342
asg4
(g8
S'UUUUUU\xd5?'
p348
tp349
Rp350
(lp351
g326
ag344
a(lp352
I30
aF0.5725780180027964
aF0.16574936579097815
aag326
a(lp353
F14.6
aF0.8198741894014951
aF0.7977151614582976
aassI9
(dp354
g4
(g8
S'\x1c\xc7q\x1c\xc7q\xbc?'
p355
tp356
Rp357
(lp358
(lp359
I21
aF0.23221107600600366
aF0.4520149675595295
aa(lp360
I21
aF0.10232415094959568
aF0.29795190060769317
aa(lp361
I29
aF0.3511390305916997
aF0.5829761099995239
aa(lp362
I13
aF0.3675487041881529
aF0.4375753319958764
aa(lp363
I10
aF0.9005599729794986
aF0.9337042500935481
aa(lp364
I15
aF0.5895997780465472
aF0.12396695621605014
aa(lp365
I26
aF0.1553337526821893
aF0.807999779155748
aa(lp366
I29
aF0.1366246636537134
aF0.35729486553770173
aa(lp367
I18
aF0.46671302142716276
aF0.18714315371395018
aa(lp368
I20
aF0.3260479944063295
aF0.20567313126835207
aa(lp369
F20.0
aF0.23512714686684388
aF0.09782898440206662
aag361
ag362
a(lp370
F23.4
aF0.5691045187131811
aF0.1483764721902654
aag365
ag366
ag367
ag368
ag359
ag360
ag362
a(lp371
F18.6
aF0.3915590630810353
aF0.4791154074468824
aag366
a(lp372
I30
aF0.2316390613848016
aI1
aag368
ag359
ag360
ag361
ag365
ag366
a(lp373
I10
aF0.7837956015021463
aF0.023813617188794073
aasg4
(g8
S'UUUUUU\xc5?'
p374
tp375
Rp376
(lp377
(lp378
F23.1
aF0.016303421316026592
aF0.3421752388562232
aasg4
(g8
S'\x1c\xc7q\x1c\xc7q\xcc?'
p379
tp380
Rp381
(lp382
g360
a(lp383
F20.6
aF0.76377019379602
aF0.3234839027903316
aag361
ag383
ag364
a(lp384
F29.7
aI0
aF0.42189000407524047
aag383
ag364
asss.(dp0
S'pitsD'
p1
F23326.685535907745
s.
