(dp0
S'pitsE'
p1
(dp2
I1
cnumpy.core.multiarray
scalar
p3
(cnumpy
dtype
p4
(S'f8'
p5
I0
I1
tp6
Rp7
(I3
S'<'
p8
NNNI-1
I-1
I0
tp9
bS'\x00\x00\x00\x00\x00\x00\xf0?'
p10
tp11
Rp12
sI2
g3
(g7
S'\x00\x00\x00\x00\x00\x00\xf0?'
p13
tp14
Rp15
sI3
g3
(g7
S'\x00\x00\x00\x00\x00\x00\xf0?'
p16
tp17
Rp18
sI4
g3
(g7
S'\x00\x00\x00\x00\x00\x00\xf0?'
p19
tp20
Rp21
sI5
g3
(g7
S'\x00\x00\x00\x00\x00\x00\xf0?'
p22
tp23
Rp24
sI6
g3
(g7
S'\x1c\xc7q\x1c\xc7q\xdc?'
p25
tp26
Rp27
sI7
g3
(g7
S'\x00\x00\x00\x00\x00\x00\xf0?'
p28
tp29
Rp30
sI8
g3
(g7
S'UUUUUU\xd5?'
p31
tp32
Rp33
sI9
g3
(g7
S'UUUUUU\xe5?'
p34
tp35
Rp36
ss.(dp0
S'pitsE'
p1
(dp2
I1
(dp3
cnumpy.core.multiarray
scalar
p4
(cnumpy
dtype
p5
(S'f8'
p6
I0
I1
tp7
Rp8
(I3
S'<'
p9
NNNI-1
I-1
I0
tp10
bS'\x00\x00\x00\x00\x00\x00\xf0?'
p11
tp12
Rp13
(lp14
(lp15
I12
aF0.8474337369372327
aF0.763774618976614
aa(lp16
I15
aF0.49543508709194095
aF0.4494910647887381
aa(lp17
I23
aF0.7887233511355132
aF0.0938595867742349
aa(lp18
I10
aF0.8357651039198697
aF0.43276706790505337
aa(lp19
I26
aF0.0021060533511106927
aF0.4453871940548014
aa(lp20
I25
aF0.22876222127045265
aF0.9452706955539223
aa(lp21
I28
aF0.030589983033553536
aF0.0254458609934608
aa(lp22
I21
aF0.9391491627785106
aF0.38120423768821243
aa(lp23
I14
aF0.4221165755827173
aF0.029040787574867943
aa(lp24
I14
aF0.43788759365057206
aF0.49581224138185065
aag15
ag16
ag17
ag18
ag19
a(lp25
F10.4
aI1
aF0.3789844316123497
aa(lp26
I10
aI1
aF0.7809370862199654
aag22
ag23
ag24
ag15
ag16
ag17
ag18
a(lp27
F18.3
aI1
aF0.8091477784161709
aa(lp28
F22.2
aF0.507276478458961
aF0.9011390741201641
aa(lp29
F21.3
aF0.7520598299788981
aF0.494864224228295
aag22
ag23
a(lp30
F17.1
aF0.3567145203261116
aI0
aa(lp31
F21.3
aF0.7520598299788981
aF0.494864224228295
aag16
a(lp32
I10
aF0.5365323571531446
aF0.9184315873304034
aag18
a(lp33
F29.5
aI0
aF0.3974975860082596
aag20
ag21
ag22
a(lp34
F26.5
aF0.5504923393559631
aF0.10556638459281423
aa(lp35
I30
aI0
aI0
aassI2
(dp36
g4
(g8
S'\x00\x00\x00\x00\x00\x00\xf0?'
p37
tp38
Rp39
(lp40
(lp41
I30
aF0.5552093255961958
aF0.9848163415553
aa(lp42
I26
aF0.8144939404782403
aF0.09220778532194429
aa(lp43
I28
aF0.7561744723797467
aF0.575906633121303
aa(lp44
I29
aF0.8835002793246026
aF0.9143184967575552
aa(lp45
I19
aF0.9820518776072423
aF0.6688838271211008
aa(lp46
I14
aF0.9602392887504246
aF0.3138170156767651
aa(lp47
I24
aF0.3184813949335368
aF0.20931015228101235
aa(lp48
I22
aF0.6572324006138067
aF0.40790912865189577
aa(lp49
I26
aF0.6112660914030527
aF0.49669059722979525
aa(lp50
I19
aF0.1660418102457425
aF0.2086643295660412
aa(lp51
F16.2
aF0.8719687997021388
aF0.8898747674520668
aa(lp52
I30
aF0.6985309033992821
aI1
aag43
ag44
ag45
ag46
ag47
ag48
a(lp53
F17.8
aF0.4915228491499454
aI0
aag50
ag41
ag42
a(lp54
F19.1
aF0.16009387983597967
aI0
aag44
ag45
a(lp55
F16.8
aF0.9209995526856248
aF0.6555050367046185
aag47
ag48
ag49
a(lp56
F23.7
aF0.14211646210239293
aF0.7277467290666167
aag41
ag42
ag43
ag44
ag45
ag46
ag47
ag48
ag49
ag50
assI3
(dp57
g4
(g8
S'\x1c\xc7q\x1c\xc7q\xec?'
p58
tp59
Rp60
(lp61
(lp62
I28
aF0.06801849463881526
aF0.26970436981794355
aa(lp63
I19
aF0.42128280508035876
aF0.45435950306476325
aa(lp64
I12
aF0.03699635189690109
aF0.13523322539922034
aa(lp65
I24
aF0.38139467016337425
aF0.4212218287060603
aa(lp66
I29
aF0.36950527328791294
aF0.5761168949920678
aag63
a(lp67
I30
aI0
aI1
aag64
a(lp68
F20.5
aF0.46804192130639594
aF0.42925405376037523
aag63
ag62
a(lp69
F21.2
aF0.43541904290306
aI1
aa(lp70
F19.0
aF0.00075207964218902
aF0.22046339974833348
aa(lp71
F21.1
aF0.11575407092974227
aF0.8507197621295286
aasg4
(g8
S'9\x8e\xe38\x8e\xe3\xe8?'
p72
tp73
Rp74
(lp75
(lp76
I30
aF0.2638974469186113
aF0.6056815718363142
aag65
ag66
ag62
ag76
ag66
a(lp77
F22.7
aF0.3224187827902746
aF0.5416482159433407
aag66
asg4
(g8
S'\x00\x00\x00\x00\x00\x00\xf0?'
p78
tp79
Rp80
(lp81
(lp82
I23
aF0.830236700865777
aF0.6354286320174315
aag64
a(lp83
I24
aF0.49328706063508676
aF0.5875915022125177
aa(lp84
I30
aF0.47643567741064885
aF0.5832983498643707
aa(lp85
I27
aF0.9129052976258153
aF0.017069408343277304
aag82
ag83
ag84
a(lp86
I10
aF0.07324062415161317
aF0.05000305105010719
aag82
a(lp87
F23.7
aF0.7237206947197292
aF0.7125569431371445
aag83
ag70
a(lp88
I30
aI1
aF0.24045780270915731
aag87
ag83
ag84
ag63
assI4
(dp89
g4
(g8
S'\x00\x00\x00\x00\x00\x00\xf0?'
p90
tp91
Rp92
(lp93
(lp94
I25
aF0.8541612581359003
aF0.9151906415931946
aa(lp95
I28
aF0.7483308595696676
aF0.36961649293810805
aag94
ag95
a(lp96
F28.0
aF0.6937186656599954
aF0.3446895068506299
aag94
a(lp97
F25.0
aI1
aI1
aa(lp98
F20.5
aF0.8671493037260671
aI0
aag94
ag97
ag95
a(lp99
I17
aF0.6710895440090188
aF0.8289401175546389
aasg4
(g8
S'9\x8e\xe38\x8e\xe3\xe8?'
p100
tp101
Rp102
(lp103
(lp104
I16
aF0.5991072245726397
aF0.29104712874151273
aa(lp105
I13
aF0.20443944533675573
aF0.00048761803308094986
aa(lp106
I13
aF0.7544714352623919
aF0.5074862670135465
aa(lp107
F24.7
aF0.47147608839607735
aF0.3938195453891831
aag104
a(lp108
F13.3
aI0
aF0.6864505094106672
aa(lp109
I10
aF0.1346565693252999
aI0
aa(lp110
I21
aF0.03989487453580676
aF0.36492397217909567
aasg4
(g8
S'\x1c\xc7q\x1c\xc7q\xdc?'
p111
tp112
Rp113
(lp114
(lp115
I28
aF0.403438010727061
aF0.42729045223245754
aag115
asg4
(g8
S'r\x1c\xc7q\x1c\xc7\xe1?'
p116
tp117
Rp118
(lp119
(lp120
F18.6
aF0.33258964522557277
aF0.06086298486006994
aasg4
(g8
S'\x1c\xc7q\x1c\xc7q\xec?'
p121
tp122
Rp123
(lp124
g106
ag99
a(lp125
I16
aF0.6771246444435999
aF0.3266571088664816
aag110
a(lp126
F17.9
aF0.7003446348604583
aF0.00377238256438962
aag104
ag126
ag106
asg4
(g8
S'UUUUUU\xe5?'
p127
tp128
Rp129
(lp130
(lp131
I24
aF0.4757006587002841
aF0.04222143930747302
aag105
ag110
a(lp132
I30
aF0.3492952571539066
aF0.3007100415295121
aag131
ag131
a(lp133
F13.3
aF0.23503441812928222
aF0.6906093515733471
aag110
ag104
assI5
(dp134
g4
(g8
S'\x00\x00\x00\x00\x00\x00\xf0?'
p135
tp136
Rp137
(lp138
(lp139
I29
aF0.7306513735989286
aF0.49373616235317475
aa(lp140
I19
aF0.9274991383015221
aF0.7174839247647586
aag139
ag140
ag139
ag140
a(lp141
F17.1
aI1
aF0.06523153162171857
aag140
ag141
asg4
(g8
S'9\x8e\xe38\x8e\xe3\xe8?'
p142
tp143
Rp144
(lp145
(lp146
I16
aF0.8857170149480721
aF0.38522624722828835
aa(lp147
F13.4
aI1
aF0.44503043524341257
aa(lp148
I12
aF0.9024665370170748
aF0.19473719114697385
aag146
asg4
(g8
S'\x1c\xc7q\x1c\xc7q\xec?'
p149
tp150
Rp151
(lp152
g146
a(lp153
F16.0
aF0.8409302571717485
aF0.13182772727929531
aag147
ag146
asg4
(g8
S'r\x1c\xc7q\x1c\xc7\xe1?'
p154
tp155
Rp156
(lp157
(lp158
I29
aF0.3251528912761992
aF0.444888777979064
aa(lp159
I14
aF0.3505603921720014
aF0.8421333508671428
aa(lp160
I24
aF0.09528166198842658
aF0.7744455179730685
aa(lp161
I29
aF0.3891339738138042
aF0.8068866636204827
aa(lp162
I13
aF0.5872626551565724
aF0.14020154060628442
aa(lp163
I14
aF0.1792766327396783
aF0.87150929138243
aa(lp164
F17.0
aF0.47213727712982906
aF0.7118636007740616
aag162
ag148
a(lp165
F24.0
aI0
aF0.9936508688601841
aag163
a(lp166
F26.1
aF0.30419971384247635
aF0.9459628126084713
aag161
a(lp167
I10
aI1
aF0.32264433002928156
aag161
asg4
(g8
S'\x1c\xc7q\x1c\xc7q\xdc?'
p168
tp169
Rp170
(lp171
g158
ag161
asg4
(g8
S'UUUUUU\xe5?'
p172
tp173
Rp174
(lp175
g163
ag148
ag153
a(lp176
F10.100000000000001
aI1
aF0.002649614422711763
aag163
asg4
(g8
S'\xc7q\x1c\xc7q\x1c\xe7?'
p177
tp178
Rp179
(lp180
g148
assI6
(dp181
g4
(g8
S'8\x8e\xe38\x8e\xe3\xd8?'
p182
tp183
Rp184
(lp185
(lp186
I10
aF0.755379761192071
aF0.3389297042789896
aasg4
(g8
S'r\x1c\xc7q\x1c\xc7\xe1?'
p187
tp188
Rp189
(lp190
g186
a(lp191
F12.7
aF0.7207307618628969
aF0.1571200153538698
aasg4
(g8
S'r\x1c\xc7q\x1c\xc7\xd1?'
p192
tp193
Rp194
(lp195
(lp196
I30
aF0.19266573119060126
aF0.7989425374159368
aasg4
(g8
S'\x1c\xc7q\x1c\xc7q\xdc?'
p197
tp198
Rp199
(lp200
(lp201
I18
aF0.14044581163338277
aF0.13920948938844036
aa(lp202
I17
aF0.08241178665121329
aF0.16537198078278414
aa(lp203
I13
aF0.6563691580043055
aF0.9921301880301931
aag196
ag186
a(lp204
I17
aF0.5526620410836685
aF0.19560276968721224
aa(lp205
F27.3
aF0.4464101849617048
aF0.030600655373575925
aag191
a(lp206
I23
aF0.20079277288751607
aF0.11175435774546649
aag203
a(lp207
I12
aF0.6801069443753782
aF0.17543375932991045
aag201
ag202
ag206
ag196
ag202
asg4
(g8
S'UUUUUU\xd5?'
p208
tp209
Rp210
(lp211
g196
ag204
a(lp212
I28
aF0.4297937345019539
aF0.6022881554637738
aag206
ag207
ag202
a(lp213
I16
aF0.6646417218218922
aF0.2401288926654549
aa(lp214
F17.599999999999998
aF0.3960364976088336
aF0.06725784090987792
aag191
ag213
ag203
ag186
ag204
ag213
ag206
ag203
a(lp215
F14.69
aF0.12167411467991657
aF0.10726576666467458
aasg4
(g8
S'\x1c\xc7q\x1c\xc7q\xcc?'
p216
tp217
Rp218
(lp219
g213
ag207
ag201
assI7
(dp220
g4
(g8
S'\x00\x00\x00\x00\x00\x00\xf0?'
p221
tp222
Rp223
(lp224
(lp225
I30
aI1
aI1
aag225
asg4
(g8
S'9\x8e\xe38\x8e\xe3\xe8?'
p226
tp227
Rp228
(lp229
(lp230
I27
aF0.7931141739580364
aF0.09214846481626315
aasg4
(g8
S'r\x1c\xc7q\x1c\xc7\xe1?'
p231
tp232
Rp233
(lp234
g230
a(lp235
I27
aF0.7733584352707173
aF0.9419024223920952
aa(lp236
I12
aF0.4000307043148138
aF0.09472270665353688
aag230
ag235
a(lp237
I22
aF0.9329593093682002
aF0.8701520932783877
aasg4
(g8
S'\x1c\xc7q\x1c\xc7q\xcc?'
p238
tp239
Rp240
(lp241
(lp242
I12
aF0.3025145148808839
aF0.17482446492289416
aa(lp243
I20
aF0.4405728102822777
aF0.0670036307913926
aa(lp244
F13.4
aF0.625481377784167
aF0.7280483810655265
aa(lp245
I12
aF0.5370958283360381
aF0.15039925918517882
aa(lp246
F12.0
aF0.5232668112549147
aF0.7452270294882613
aa(lp247
F22.9
aF0.3369030824042229
aI0
aasg4
(g8
S'r\x1c\xc7q\x1c\xc7\xd1?'
p248
tp249
Rp250
(lp251
(lp252
I25
aF0.07984064915042088
aF0.643348898023641
aa(lp253
I18
aF0.34896674512293546
aF0.20504553422250016
aag236
asg4
(g8
S'\x1c\xc7q\x1c\xc7q\xdc?'
p254
tp255
Rp256
(lp257
g253
a(lp258
F22.9
aI0
aF0.6026805936981077
aag237
a(lp259
F19.37
aI1
aI0
aa(lp260
I10
aF0.6690453705528675
aI0
aasg4
(g8
S'8\x8e\xe38\x8e\xe3\xd8?'
p261
tp262
Rp263
(lp264
g245
asg4
(g8
S'UUUUUU\xd5?'
p265
tp266
Rp267
(lp268
g253
a(lp269
I20
aF0.8103479778419115
aF0.9953654144262607
aag245
ag252
ag269
ag243
a(lp270
F23.6
aI0
aF0.7309982228271521
aa(lp271
I10
aF0.08763733345380298
aI0
aag253
a(lp272
I10
aF0.11711732135640779
aI0
aag236
ag245
asg4
(g8
S'UUUUUU\xe5?'
p273
tp274
Rp275
(lp276
g237
ag235
ag237
ag230
assI8
(dp277
g4
(g8
S'\x1c\xc7q\x1c\xc7q\xdc?'
p278
tp279
Rp280
(lp281
(lp282
I27
aF0.800194365673477
aF0.20016383821375983
aa(lp283
I30
aF0.9034676536427746
aF0.7127283929946683
aag282
asg4
(g8
S'\x1c\xc7q\x1c\xc7q\xcc?'
p284
tp285
Rp286
(lp287
(lp288
I26
aF0.8755172920384513
aF0.31746742795920024
aa(lp289
I16
aF0.21558350339237475
aF0.3741667543635915
aa(lp290
I18
aF0.2712000926915118
aF0.7200728906019127
aa(lp291
I21
aF0.5838228188111305
aF0.22018631369291974
aa(lp292
I20
aF0.286390352291263
aF0.171934684604944
aag282
ag289
ag290
ag291
a(lp293
F25.439999999999998
aF0.7130605575794386
aF0.7122007660517865
aag289
a(lp294
I26
aF0.4727187068809672
aF0.1290428954990962
aag290
ag291
a(lp295
F16.6
aF0.048574995942546995
aF0.22724504689858976
aa(lp296
I17
aF0.6990826103304218
aF0.18200485221040852
aa(lp297
F28.8
aF0.4474090583816719
aI0
aasg4
(g8
S'UUUUUU\xd5?'
p298
tp299
Rp300
(lp301
g296
a(lp302
I28
aF0.7907545593794884
aF0.833082672218129
aa(lp303
I16
aF0.3225469930045419
aF0.5716312124120201
aag294
ag296
ag297
ag302
ag282
ag302
ag303
ag302
ag289
asg4
(g8
S'UUUUUU\xc5?'
p304
tp305
Rp306
(lp307
g292
ag292
asg4
(g8
S'\x1c\xc7q\x1c\xc7q\xbc?'
p308
tp309
Rp310
(lp311
g303
ag294
ag297
ag303
a(lp312
F26.7
aF0.6809214334448744
aF0.16281903586067922
aag291
assI9
(dp313
g4
(g8
S'8\x8e\xe38\x8e\xe3\xd8?'
p314
tp315
Rp316
(lp317
(lp318
I19
aF0.3811467507978822
aF0.1242563852748817
aasg4
(g8
S'r\x1c\xc7q\x1c\xc7\xd1?'
p319
tp320
Rp321
(lp322
(lp323
I15
aF0.9661464325913535
aF0.9644890508684797
aasg4
(g8
S'\x1c\xc7q\x1c\xc7q\xcc?'
p324
tp325
Rp326
(lp327
(lp328
I27
aF0.9783188935799645
aF0.7798311896304724
aa(lp329
I17
aF0.6383598942931128
aF0.2544464095026321
aa(lp330
I16
aF0.6732518814544004
aF0.13457405722531568
aa(lp331
I13
aF0.7211082175146593
aF0.10290431150567902
aag323
ag328
ag330
a(lp332
I26
aF0.6580775513355814
aF0.5082031704034742
aa(lp333
I30
aF0.10353826181531822
aF0.3774984720352039
aag331
ag323
ag328
ag333
a(lp334
F24.7
aF0.44403395200531803
aF0.43171587023485763
aag328
a(lp335
I30
aF0.2943203812771708
aF0.7796950308792439
aa(lp336
F23.7
aF0.6124734227899025
aF0.5933811091483692
aasg4
(g8
S'\x1c\xc7q\x1c\xc7q\xec?'
p337
tp338
Rp339
(lp340
g318
ag334
ag318
asg4
(g8
S'r\x1c\xc7q\x1c\xc7\xe1?'
p341
tp342
Rp343
(lp344
g330
asg4
(g8
S'\x1c\xc7q\x1c\xc7q\xdc?'
p345
tp346
Rp347
(lp348
(lp349
I12
aF0.3587237452547434
aF0.21806786018556668
aag331
asg4
(g8
S'9\x8e\xe38\x8e\xe3\xe8?'
p350
tp351
Rp352
(lp353
g334
ag331
asg4
(g8
S'UUUUUU\xe5?'
p354
tp355
Rp356
(lp357
g349
ag330
asg4
(g8
S'\x1c\xc7q\x1c\xc7q\xbc?'
p358
tp359
Rp360
(lp361
(lp362
I27
aF0.6536926357433859
aF0.6988228979092245
aag332
ag333
ag335
ag332
ag333
asg4
(g8
S'\xc7q\x1c\xc7q\x1c\xe7?'
p363
tp364
Rp365
(lp366
g318
asg4
(g8
S'UUUUUU\xd5?'
p367
tp368
Rp369
(lp370
g323
ag335
ag349
ag349
asss.(dp0
S'pitsE'
p1
F28543.669684886932
s.
