(dp0
S'citemap'
p1
(dp2
I1
cnumpy.core.multiarray
scalar
p3
(cnumpy
dtype
p4
(S'f8'
p5
I0
I1
tp6
Rp7
(I3
S'<'
p8
NNNI-1
I-1
I0
tp9
bS'\x00\x00\x00\x00\x00\x00\xf0?'
p10
tp11
Rp12
sI2
g3
(g7
S'\x00\x00\x00\x00\x00\x00\xf0?'
p13
tp14
Rp15
sI3
g3
(g7
S'\x00\x00\x00\x00\x00\x00\xf0?'
p16
tp17
Rp18
sI4
g3
(g7
S'\x00\x00\x00\x00\x00\x00\xf0?'
p19
tp20
Rp21
sI5
g3
(g7
S'\x00\x00\x00\x00\x00\x00\xf0?'
p22
tp23
Rp24
sI6
g3
(g7
S'\x00\x00\x00\x00\x00\x00\xf0?'
p25
tp26
Rp27
sI7
g3
(g7
S'\x00\x00\x00\x00\x00\x00\xf0?'
p28
tp29
Rp30
sI8
g3
(g7
S'\x00\x00\x00\x00\x00\x00\xf0?'
p31
tp32
Rp33
sI9
g3
(g7
S'\x00\x00\x00\x00\x00\x00\xf0?'
p34
tp35
Rp36
ss.(dp0
S'citemap'
p1
(dp2
I1
(dp3
cnumpy.core.multiarray
scalar
p4
(cnumpy
dtype
p5
(S'f8'
p6
I0
I1
tp7
Rp8
(I3
S'<'
p9
NNNI-1
I-1
I0
tp10
bS'\x00\x00\x00\x00\x00\x00\xf0?'
p11
tp12
Rp13
(lp14
(lp15
I12
aF0.8474337369372327
aF0.763774618976614
aa(lp16
I15
aF0.49543508709194095
aF0.4494910647887381
aa(lp17
I23
aF0.7887233511355132
aF0.0938595867742349
aa(lp18
I10
aF0.8357651039198697
aF0.43276706790505337
aa(lp19
I26
aF0.0021060533511106927
aF0.4453871940548014
aa(lp20
I25
aF0.22876222127045265
aF0.9452706955539223
aa(lp21
I28
aF0.030589983033553536
aF0.0254458609934608
aa(lp22
I21
aF0.9391491627785106
aF0.38120423768821243
aa(lp23
I14
aF0.4221165755827173
aF0.029040787574867943
aa(lp24
I14
aF0.43788759365057206
aF0.49581224138185065
aag15
a(lp25
F16.6
aF0.5227695868325772
aF0.653828211017969
aag17
a(lp26
F13.3
aF0.9802464328397142
aF0.8501447602298777
aag19
ag20
ag21
ag22
ag23
ag24
ag15
ag16
a(lp27
F12.600000000000001
aI1
aF0.4165017708171469
aa(lp28
F28.5
aI0
aF0.8973810875073804
aag19
ag20
ag21
ag22
ag23
ag24
ag15
ag16
ag17
ag18
ag19
a(lp29
F13.200000000000001
aI1
aF0.31673078421950374
aag21
ag22
ag23
ag24
assI2
(dp30
g4
(g8
S'\x00\x00\x00\x00\x00\x00\xf0?'
p31
tp32
Rp33
(lp34
(lp35
I27
aF0.6306656457930538
aF0.20376074599800076
aa(lp36
I29
aF0.13686805668174618
aF0.27930844197893323
aa(lp37
I15
aF0.8290632103324993
aF0.3119363624687722
aa(lp38
I11
aF0.26036130461893736
aF0.41341341201497017
aa(lp39
I28
aF0.5914295572572599
aF0.2426635915357782
aa(lp40
I15
aF0.26856043221429426
aF0.4222130037198182
aa(lp41
I13
aF0.4642307077477724
aF0.8924746305990278
aa(lp42
I28
aF0.9921107910869758
aF0.2945067886817493
aa(lp43
I19
aF0.39559452983201615
aF0.9499753814554395
aa(lp44
I30
aF0.028177586570418467
aF0.7982524616580579
aag35
ag36
a(lp45
I10
aF0.6453392389529614
aI1
aag38
a(lp46
I10
aF0.9973312022832124
aF0.04870874191200447
aa(lp47
F26.6
aF0.7283987501306946
aF0.5718467303512249
aa(lp48
F21.8
aF0.401333919148766
aF0.956135095648833
aa(lp49
I10
aF0.5655984894430851
aF0.47936893027364913
aag43
ag44
ag35
ag36
ag37
ag38
ag39
ag40
a(lp50
I30
aF0.392250808491055
aI0
aa(lp51
F18.200000000000003
aI1
aF0.39453998190036876
aag43
ag44
ag35
ag36
a(lp52
F18.9
aI1
aF0.3429977283348451
aag38
ag39
a(lp53
I10
aF0.3065553351753749
aI1
aag41
a(lp54
I30
aF0.2739525758794168
aI0
aag43
ag44
assI3
(dp55
g4
(g8
S'\x00\x00\x00\x00\x00\x00\xf0?'
p56
tp57
Rp58
(lp59
(lp60
I21
aF0.35368264073847655
aF0.8258899076367051
aa(lp61
I10
aF0.05131182864864081
aF0.24796174794669046
aa(lp62
I21
aF0.9387068960789192
aF0.4635157334903238
aa(lp63
I15
aF0.16412111110888972
aF0.5913292420572114
aa(lp64
I17
aF0.7517875351232413
aF0.521517414480995
aa(lp65
I14
aF0.8265760196712637
aF0.8853999336190712
aa(lp66
I17
aF0.137028307511323
aF0.9777164851003777
aa(lp67
I27
aF0.3436917639955418
aF0.346492230433715
aa(lp68
I26
aF0.9855660597816209
aF0.5668287534318921
aa(lp69
I11
aF0.3799003969421112
aF0.8333274495156315
aa(lp70
F19.8
aF0.679713241227159
aI1
aag61
a(lp71
F17.5
aF0.2747161430163023
aF0.5855326617593405
aag63
ag64
ag65
ag66
ag67
ag68
a(lp72
F23.9
aI1
aF0.5022071673949776
aag60
ag61
ag62
ag63
a(lp73
F16.1
aF0.8787053608750417
aI0
aag65
ag66
a(lp74
F24.5
aI1
aF0.7038729793676884
aag68
a(lp75
F16.8
aF0.5236931033400283
aF0.7248175827273828
aag60
a(lp76
I30
aF0.8155555971800692
aF0.6679010783412144
aag62
a(lp77
F23.9
aI1
aF0.8215465168285454
aa(lp78
F14.0
aF0.9570593254214634
aF0.4687220128055723
aag65
ag66
a(lp79
I10
aI0
aF0.4345108352053081
aag68
ag69
assI4
(dp80
g4
(g8
S'\x00\x00\x00\x00\x00\x00\xf0?'
p81
tp82
Rp83
(lp84
(lp85
I26
aF0.7158785863309425
aF0.1280601656688638
aa(lp86
I28
aF0.2237579006811682
aF0.3409111226372108
aa(lp87
I26
aF0.4520392601720681
aF0.7952946227279478
aa(lp88
I13
aF0.1363877284546432
aF0.6536127478124405
aa(lp89
I25
aF0.6361610394634232
aF0.11914677177462163
aa(lp90
I29
aF0.6659282279788408
aF0.5810499661865803
aa(lp91
I15
aF0.23562917920728155
aF0.9882299607574246
aa(lp92
I28
aF0.5956846894121081
aF0.48388076311002415
aa(lp93
I16
aF0.9489723621401632
aF0.21465536710964817
aa(lp94
I28
aF0.26968038861215293
aF0.7243616288699034
aag85
ag86
a(lp95
I30
aF0.41862685706920216
aF0.7695077433868436
aag88
ag89
a(lp96
F28.7
aF0.2729283776778811
aF0.4089295647908001
aa(lp97
F17.5
aF0.5345255688535405
aF0.7027719007326849
aag92
a(lp98
F19.6
aI0
aF0.715037305863684
aag94
ag85
ag86
ag87
ag88
ag89
ag90
ag91
a(lp99
F17.6
aF0.963179957240581
aI0
aag93
ag94
ag85
ag86
ag87
a(lp100
I30
aF0.9723356244499858
aI0
aag89
ag90
a(lp101
I10
aF0.3987948222737361
aI1
aag92
a(lp102
F13.7
aF0.41376121601132465
aF0.5532945839341143
aag94
assI5
(dp103
g4
(g8
S'\x00\x00\x00\x00\x00\x00\xf0?'
p104
tp105
Rp106
(lp107
(lp108
I11
aF0.12313274320865075
aF0.43259040248455405
aa(lp109
I10
aF0.2634568065375382
aF0.19494968799994594
aa(lp110
I27
aF0.8756862986191586
aF0.7874639692053731
aa(lp111
I14
aF0.11235664634161757
aF0.9674421500225
aa(lp112
I19
aF0.721669833074672
aF0.8119167962253316
aa(lp113
I10
aF0.6686905475230405
aF0.3762085569352054
aa(lp114
I11
aF0.5985256097903512
aF0.4009636507189682
aa(lp115
I16
aF0.6262395956164105
aF0.633021632803253
aag108
ag109
a(lp116
I10
aF0.6530063293823156
aF0.08726837187409087
aag111
ag112
a(lp117
F12.8
aF0.1929400683792385
aF0.19622267120660608
aa(lp118
F11.3
aF0.6849023446524083
aI1
aag115
ag108
ag109
ag110
ag111
a(lp119
F29.8
aF0.3999358194753566
aF0.6074780834767738
aa(lp120
F14.5
aF0.5496519739217889
aF0.32372265482653617
aag113
ag114
ag115
ag108
ag109
ag110
ag111
a(lp121
I30
aF0.7596538839677116
aF0.3733837214233009
aag113
a(lp122
I10
aI0
aF0.0007134267267840944
aag115
asg4
(g8
S'9\x8e\xe38\x8e\xe3\xe8?'
p123
tp124
Rp125
(lp126
(lp127
I23
aF0.04202629144066916
aF0.5547941023273326
aag127
a(lp128
I25
aF0.16488162980199428
aF0.5645181462432333
aasg4
(g8
S'UUUUUU\xe5?'
p129
tp130
Rp131
(lp132
g127
asg4
(g8
S'\x1c\xc7q\x1c\xc7q\xec?'
p133
tp134
Rp135
(lp136
g128
ag127
ag119
assI6
(dp137
g4
(g8
S'\x00\x00\x00\x00\x00\x00\xf0?'
p138
tp139
Rp140
(lp141
(lp142
I21
aF0.8990067340832063
aF0.3073933633696453
aa(lp143
I16
aF0.9685682284803224
aF0.6357305143716088
aa(lp144
I26
aF0.9066204890988825
aF0.6978614587083349
aa(lp145
I28
aF0.8582194033990402
aF0.3954316009481452
aag142
ag143
ag144
ag145
ag142
ag143
ag144
a(lp146
F23.8
aI1
aF0.5695185342655195
aag143
a(lp147
F21.0
aF0.8036623231059151
aF0.567270215095854
aag144
ag146
ag145
asg4
(g8
S'9\x8e\xe38\x8e\xe3\xe8?'
p148
tp149
Rp150
(lp151
(lp152
I14
aF0.3379779321665065
aF0.2513450620043133
aa(lp153
I12
aF0.06377629519930816
aF0.3484765857705364
aag152
asg4
(g8
S'r\x1c\xc7q\x1c\xc7\xe1?'
p154
tp155
Rp156
(lp157
g152
a(lp158
I27
aF0.18255587987037625
aF0.3614273294214103
aa(lp159
I27
aF0.3354749598348846
aF0.05869774434482489
aag158
ag159
ag152
a(lp160
I10
aF0.3132116351198382
aF0.48100115042512065
aa(lp161
I26
aF0.09299076726521582
aF0.46017017055143417
aasg4
(g8
S'\xaa\xaa\xaa\xaa\xaa\xaa\xea?'
p162
tp163
Rp164
(lp165
(lp166
I10
aI0
aF0.0359151080777213
aasg4
(g8
S'\x1c\xc7q\x1c\xc7q\xdc?'
p167
tp168
Rp169
(lp170
(lp171
I26
aF0.22919706866134604
aF0.088917525228279
aag171
ag171
ag171
asg4
(g8
S'8\x8e\xe38\x8e\xe3\xd8?'
p172
tp173
Rp174
(lp175
g161
ag161
asg4
(g8
S'UUUUUU\xe5?'
p176
tp177
Rp178
(lp179
g153
ag153
ag158
asg4
(g8
S'UUUUUU\xd5?'
p180
tp181
Rp182
(lp183
g161
ag158
assI7
(dp184
g4
(g8
S'\x00\x00\x00\x00\x00\x00\xe0?'
p185
tp186
Rp187
(lp188
(lp189
I11
aF0.2125553204946261
aF0.4319132674759776
aa(lp190
I17
aF0.3005365764582669
aF0.33408826673479397
aa(lp191
I17
aF0.30561653767849584
aF0.7650574248033658
aasg4
(g8
S'\x00\x00\x00\x00\x00\x00\xf0?'
p192
tp193
Rp194
(lp195
(lp196
I27
aF0.7528076657923704
aF0.6140718635971828
aa(lp197
I15
aF0.9896714197100617
aF0.39841127431968126
aa(lp198
I10
aF0.6590155228019946
aF0.02147328336375154
aa(lp199
I14
aF0.8202595379985893
aF0.6653595736712692
aa(lp200
I28
aF0.5424647462946408
aF0.030688362052601614
aag196
ag189
ag198
ag199
ag200
ag196
a(lp201
F26.9
aI1
aF0.8132302804830831
aag197
ag199
ag200
ag196
ag201
a(lp202
I10
aI1
aF0.8426811224527485
aag197
a(lp203
F16.23
aF0.6208112540520183
aF0.881867609636131
aa(lp204
F23.93
aF0.7952409341577089
aI1
aasg4
(g8
S'8\x8e\xe38\x8e\xe3\xd8?'
p205
tp206
Rp207
(lp208
(lp209
I19
aF0.13317026278160837
aF0.3054547087234305
aasg4
(g8
S'r\x1c\xc7q\x1c\xc7\xe1?'
p210
tp211
Rp212
(lp213
g189
asg4
(g8
S'\x1c\xc7q\x1c\xc7q\xec?'
p214
tp215
Rp216
(lp217
(lp218
I12
aF0.5566719350568002
aF0.21527593349732055
aa(lp219
I10
aF0.6135812478490614
aF0.5914943053217497
aag218
asg4
(g8
S'\xaa\xaa\xaa\xaa\xaa\xaa\xea?'
p220
tp221
Rp222
(lp223
(lp224
F17.7
aF0.5414182066517887
aF0.18244213294973405
aasg4
(g8
S'r\x1c\xc7q\x1c\xc7\xd1?'
p225
tp226
Rp227
(lp228
g191
asg4
(g8
S'\x1c\xc7q\x1c\xc7q\xcc?'
p229
tp230
Rp231
(lp232
g190
ag190
asg4
(g8
S'9\x8e\xe38\x8e\xe3\xe8?'
p233
tp234
Rp235
(lp236
g218
asg4
(g8
S'UUUUUU\xd5?'
p237
tp238
Rp239
(lp240
g191
a(lp241
F24.099999999999998
aF0.4560187305491952
aF0.8366816756924905
aasg4
(g8
S'\x1c\xc7q\x1c\xc7q\xdc?'
p242
tp243
Rp244
(lp245
(lp246
F28.9
aF0.37127103777175885
aI1
aa(lp247
F19.799999999999997
aF0.46455916860923063
aI0
aasg4
(g8
S'UUUUUU\xe5?'
p248
tp249
Rp250
(lp251
g209
ag191
assI8
(dp252
g4
(g8
S'\x00\x00\x00\x00\x00\x00\xf0?'
p253
tp254
Rp255
(lp256
(lp257
I10
aF0.24541594916301923
aF0.845881968842173
aa(lp258
I24
aF0.9038437498392481
aF0.2822748632474974
aa(lp259
I16
aF0.14766811925640255
aF0.3167475771713365
aa(lp260
I26
aF0.4092513258006165
aF0.6943313874406154
aa(lp261
I28
aF0.9098053259396793
aF0.45910346300331684
aa(lp262
I29
aF0.909631536307906
aF0.35241518605797784
aag257
a(lp263
I16
aF0.31084229973783173
aF0.4089059711095929
aag258
a(lp264
I10
aF0.24553760190526053
aF0.9205637627039103
aag261
a(lp265
I12
aF0.8446002000673567
aF0.6822863868323771
aag262
ag263
ag258
ag259
ag260
ag261
ag265
a(lp266
I19
aF0.3344633230743692
aF0.5401713509667823
aag262
a(lp267
F18.1
aI0
aF0.38633198125877005
aag263
ag258
a(lp268
I10
aI0
aF0.9207827839898295
aa(lp269
I15
aF0.3287513027661374
aF0.6500378299026301
aa(lp270
I30
aI1
aF0.3875534303835846
aa(lp271
I30
aI1
aF0.23789827865112068
aag265
ag262
asg4
(g8
S'8\x8e\xe38\x8e\xe3\xd8?'
p272
tp273
Rp274
(lp275
(lp276
F17.0
aF0.5012260005757723
aF0.4137041786836605
aasg4
(g8
S'\x1c\xc7q\x1c\xc7q\xdc?'
p277
tp278
Rp279
(lp280
g260
a(lp281
F12.700000000000001
aI0
aI1
aasg4
(g8
S'r\x1c\xc7q\x1c\xc7\xe1?'
p282
tp283
Rp284
(lp285
g263
ag269
ag266
asg4
(g8
S'\x1c\xc7q\x1c\xc7q\xec?'
p286
tp287
Rp288
(lp289
g265
ag266
asg4
(g8
S'UUUUUU\xe5?'
p290
tp291
Rp292
(lp293
g266
ag269
assI9
(dp294
g4
(g8
S'\x00\x00\x00\x00\x00\x00\xf0?'
p295
tp296
Rp297
(lp298
(lp299
I29
aF0.2996818541171039
aF0.15592886019451369
aa(lp300
I10
aF0.26477352470767024
aF0.42853174068761646
aa(lp301
I14
aF0.4201145583275443
aF0.3706523958254193
aa(lp302
I13
aF0.20872809095899003
aF0.017376845653539807
aag299
ag300
a(lp303
I27
aF0.9725137142335386
aF0.5454942149331283
aag300
a(lp304
F25.8
aF0.2324163922246441
aF0.29546863428385794
aa(lp305
F22.3
aF0.0851029598924988
aF0.4825966502467136
aag299
a(lp306
I18
aF0.05827191252023356
aF0.10110205798042438
aag304
asg4
(g8
S'9\x8e\xe38\x8e\xe3\xe8?'
p307
tp308
Rp309
(lp310
g301
ag302
ag306
a(lp311
I30
aF0.5164884160187228
aF0.07045149052695054
aa(lp312
I21
aF0.9415515331111616
aF0.22334167562924512
aag303
a(lp313
I30
aF0.25408991901030803
aF0.5209754117965761
aa(lp314
F26.9
aI0
aF0.07036112784033917
aag302
asg4
(g8
S'\x1c\xc7q\x1c\xc7q\xdc?'
p315
tp316
Rp317
(lp318
g311
asg4
(g8
S'r\x1c\xc7q\x1c\xc7\xe1?'
p319
tp320
Rp321
(lp322
(lp323
F10.5
aI1
aI0
aag311
asg4
(g8
S'\x1c\xc7q\x1c\xc7q\xec?'
p324
tp325
Rp326
(lp327
g303
a(lp328
I29
aF0.19964218884081897
aF0.9500268144048485
aag313
a(lp329
F28.3
aF0.15171132695911593
aI0
aa(lp330
F22.96
aF0.43669636921350213
aF0.565316647866642
aag302
ag303
ag300
asg4
(g8
S'UUUUUU\xe5?'
p331
tp332
Rp333
(lp334
(lp335
I26
aF0.805932293222263
aF0.1368619668834773
aag312
ag312
ag312
asg4
(g8
S'\x8e\xe38\x8e\xe38\xee?'
p336
tp337
Rp338
(lp339
g306
ag306
asg4
(g8
S'\xc7q\x1c\xc7q\x1c\xe7?'
p340
tp341
Rp342
(lp343
g328
asss.
