(lp0
(dp1
S'pitsD'
p2
(dp3
I1
F1.0
sI2
F1.0
sI3
F1.0
sI4
F1.0
sI5
F1.0
sI6
F0.8888888888888888
sI7
F0.6666666666666666
sI8
F0.6666666666666666
sI9
F0.4444444444444444
ssa(dp4
g2
(dp5
I1
(dp6
F1.0
(lp7
(lp8
I12
aF0.8489593995678604
aF0.7661368727868479
aa(lp9
I23
aF0.6691850325523563
aF0.3486563178721733
aa(lp10
I15
aF0.5934879155495956
aF0.9383432962589056
aa(lp11
I21
aF0.7732254665186233
aF0.62049569741823
aa(lp12
I20
aF0.9424329488263676
aF0.20527087771948938
aa(lp13
I18
aF0.22036170120929335
aF0.8510090691947554
aa(lp14
I15
aF0.6930929091310566
aF0.15941438087651721
aa(lp15
I26
aF0.6278199538206193
aF0.5672310573569646
aa(lp16
I20
aF0.6987449973693868
aF0.10051901423778954
aa(lp17
I19
aF0.275318127264417
aF0.4207158954763759
aa(lp18
I14
aF0.4672028960951718
aF0.7745366913925349
aa(lp19
I17
aF0.1426229273740699
aF0.9236360628942656
aa(lp20
I25
aF0.7124998831685605
aF0.017556185868246373
aa(lp21
I20
aF0.9521365581193026
aF0.769140765513861
aa(lp22
I28
aF0.23793860528684727
aF0.8587344969553915
aa(lp23
I15
aF0.44678782653868865
aF0.8169421827249194
aa(lp24
I27
aF0.7672485597641254
aF0.3767568648107986
aa(lp25
I28
aF0.07108487332970923
aF0.2632647879032798
aa(lp26
I28
aF0.915660129535108
aF0.30557045324700044
aa(lp27
I17
aF0.6767595021728438
aF0.10499506702832666
aa(lp28
I28
aF0.49148159030011807
aF0.2729873166757809
aa(lp29
I18
aF0.662335700582537
aF0.5386341289008355
aa(lp30
I12
aF0.5528909688246759
aF0.539739502447112
aa(lp31
I24
aF0.6174825593301386
aF0.6222652618642242
aa(lp32
I19
aF0.14309675302707692
aF0.03324565693382387
aa(lp33
I20
aF0.030046922382718444
aF0.8220899446877535
aa(lp34
I15
aF0.12511942886328406
aF0.6238638560927551
aa(lp35
I14
aF0.8786551462241018
aF0.3846050914782912
aa(lp36
I18
aF0.4957389129559472
aF0.2496575130828515
aa(lp37
I26
aF0.6667217160823932
aF0.7482770791328441
aassI2
(dp38
F1.0
(lp39
(lp40
I15
aF0.9720173616195114
aF0.4978326509757067
aa(lp41
I23
aF0.47080769514435095
aF0.5950041579202227
aa(lp42
I13
aF0.2698103826619742
aF0.09411628472802777
aa(lp43
I28
aF0.39397747672287936
aF0.5295430751593597
aa(lp44
I13
aF0.11664655676446717
aF0.7557292686632203
aa(lp45
I21
aF0.39941360370625867
aF0.2853857255292548
aa(lp46
I20
aF0.8963824109172626
aF0.1771437069903195
aa(lp47
I10
aF0.9252221858724132
aF0.30262821449013416
aa(lp48
I23
aF0.9577461123759357
aF0.9652915782360177
aa(lp49
I18
aF0.26548405961545873
aF0.8479567494301181
aa(lp50
I28
aF0.5880242265488942
aF0.5146723853704757
aa(lp51
I25
aF0.5399390391802704
aF0.6956191825535387
aa(lp52
I30
aF0.6778171827121576
aF0.7014136145029158
aa(lp53
I20
aF0.7863143231776311
aF0.23675188367046773
aa(lp54
I23
aF0.3722830873109772
aF0.24973632649837535
aa(lp55
I22
aF0.5946976650837816
aF0.31003041924674485
aa(lp56
I12
aF0.4075213683915336
aF0.82541438712824
aa(lp57
I14
aF0.301405413167263
aF0.11661713423711131
aa(lp58
I17
aF0.5148075216222616
aF0.9097198024255838
aa(lp59
I26
aF0.16258585595379207
aF0.32697652154126006
aa(lp60
I15
aF0.9255258957752506
aF0.5836412227934791
aa(lp61
I18
aF0.21850797382620102
aF0.5793216979789464
aa(lp62
I18
aF0.4757906997391823
aF0.6785313771566104
aa(lp63
I27
aF0.012099596601091802
aF0.9514417550485564
aa(lp64
I30
aF0.4243098032197396
aF0.6795924351739274
aa(lp65
I27
aF0.8347804151067935
aF0.7553629594130009
aa(lp66
I22
aF0.26599565645522155
aF0.9098908628336881
aa(lp67
I12
aF0.7146790426088253
aF0.09557069703888779
aa(lp68
I17
aF0.26528430630790645
aF0.920627994503221
aa(lp69
I16
aF0.32934288777952425
aF0.013117910121382335
aassI3
(dp70
F1.0
(lp71
(lp72
I20
aF0.8961126674641816
aF0.3274311296143736
aa(lp73
I25
aF0.24923412446738633
aF0.5238391620258602
aa(lp74
I17
aF0.7535829772935907
aF0.7774612077738688
aa(lp75
I28
aF0.060041933733306546
aF0.9295010770019283
aa(lp76
I13
aF0.701699343534937
aF0.23298557228880087
aa(lp77
I16
aF0.754168333413763
aF0.728550474471694
aa(lp78
I26
aF0.48089176840005715
aF0.6685768283540332
aa(lp79
I23
aF0.5775723210833686
aF0.5092405463607754
aa(lp80
I25
aF0.9432220657788103
aF0.2267793069140892
aa(lp81
I30
aF0.3793860633030797
aF0.14860623095097072
aa(lp82
I24
aF0.6335296601496195
aF0.7036401869186003
aa(lp83
I27
aF0.5572137220594279
aF0.8959601615391375
aa(lp84
I11
aF0.4063255035241232
aF0.21633234095359608
aa(lp85
I19
aF0.5016185653288133
aF0.6969868835637288
aa(lp86
I29
aF0.9138412101033371
aF0.5831463784112406
aa(lp87
I16
aF0.1600073670346157
aF0.4048175522497171
aa(lp88
I23
aF0.8629649665960311
aF0.7306449761250959
aa(lp89
I11
aF0.4644498948526648
aF0.4837582646918159
aa(lp90
I24
aF0.14072474467940724
aF0.3399990681941452
aa(lp91
I27
aF0.03881482085276381
aF0.37628352418685457
aa(lp92
I16
aF0.44831129184355606
aF0.14041688719173925
aa(lp93
I29
aF0.09901052970161262
aF0.1641064796761969
aa(lp94
I22
aF0.3116990056546244
aF0.1273187428337996
aa(lp95
I15
aF0.41183685063765424
aF0.2160855933979803
aa(lp96
I24
aF0.5968281901907033
aF0.706792288308595
aa(lp97
I20
aF0.27705187137485127
aF0.2691871250714068
aa(lp98
I24
aF0.6333975932387184
aF0.4528742221078893
aa(lp99
I20
aF0.6566653021605152
aF0.27485445724153634
aa(lp100
I12
aF0.5239525948965038
aF0.42426909333738283
aa(lp101
I18
aF0.33362837988174526
aF0.9155163235808867
aassI4
(dp102
F1.0
(lp103
(lp104
I14
aF0.06609056266273752
aF0.81075257675081
aa(lp105
I23
aF0.11792094481919903
aF0.9470794854074704
aa(lp106
I22
aF0.5150885941667975
aF0.2548975085615386
aa(lp107
I28
aF0.7125688012566151
aF0.3082559072802421
aa(lp108
I20
aF0.10884442354443098
aF0.2489513168905472
aa(lp109
I15
aF0.3339748421548445
aF0.8700067198733371
aa(lp110
I11
aF0.4714267316713988
aF0.864994552104603
aa(lp111
I16
aF0.8444667206930963
aF0.34117518002305425
aa(lp112
I10
aF0.6949098538882228
aF0.5034215669580747
aa(lp113
I24
aF0.3421640679761524
aF0.2368870685530218
aa(lp114
I11
aF0.8968626548553135
aF0.6557194116952444
aa(lp115
I21
aF0.3388233288794272
aF0.037371809954563566
aa(lp116
I17
aF0.06400733469377247
aF0.9726798952785556
aa(lp117
I13
aF0.5553477054798954
aF0.7294663206095104
aa(lp118
I13
aF0.6379600623326512
aF0.3002299558853437
aa(lp119
I10
aF0.07400278896424574
aF0.2895080699785244
aa(lp120
I30
aF0.9139079253641831
aF0.9448965044806902
aa(lp121
I17
aF0.8423259672997007
aF0.6665180686647065
aa(lp122
I16
aF0.1260457915789651
aF0.5402238244144023
aa(lp123
I13
aF0.8360402604058456
aF0.13678007132622616
aa(lp124
I14
aF0.3898722928472553
aF0.17406851269966075
aa(lp125
I25
aF0.6300788256788207
aF0.5769290208100065
aa(lp126
I29
aF0.5565847298073495
aF0.3211062264709454
aa(lp127
I24
aF0.7992832704557117
aF0.7922818209299906
aa(lp128
I13
aF0.8372798907195863
aF0.9980565233340348
aa(lp129
I24
aF0.20007909986028838
aF0.8872176595945822
aa(lp130
I12
aF0.37526605542930336
aF0.12235602308242607
aa(lp131
I20
aF0.4040457630422443
aF0.806394301102069
aa(lp132
I25
aF0.43776425012490494
aF0.2823825495419443
aa(lp133
I23
aF0.4331031101151133
aF0.6106230529575292
aassI5
(dp134
F1.0
(lp135
(lp136
I25
aF0.12179355733087249
aF0.32448996533947644
aa(lp137
I10
aF0.7272816629241614
aF0.4131772069300867
aa(lp138
I16
aF0.40714983031183544
aF0.3813652945380731
aa(lp139
I11
aF0.6410526176591186
aF0.9783274664327581
aa(lp140
I14
aF0.8944475689085281
aF0.6036761376841965
aa(lp141
I15
aF0.055923861965101455
aF0.6065417635099246
aa(lp142
I24
aF0.164298077719134
aF0.8807688090978015
aa(lp143
I11
aF0.16111568709512425
aF0.31040432858586214
aa(lp144
I23
aF0.27777897485150993
aF0.70578181430863
aa(lp145
I14
aF0.07251900072646945
aF0.7617136028311605
aa(lp146
I15
aF0.2628911244429903
aF0.3752124596470918
aa(lp147
I25
aF0.04495319984722051
aF0.3539304612010588
aa(lp148
I11
aF0.5526183530291597
aF0.9153812151511292
aa(lp149
I21
aF0.03460519117240819
aF0.6235463554805111
aa(lp150
I16
aF0.13527624914326733
aF0.9723953441061391
aasF0.7777777777777778
(lp151
(lp152
I19
aF0.7446711538084343
aF0.13906823570457297
aa(lp153
I17
aF0.5988048015008772
aF0.0872173607068123
aasF0.5555555555555556
(lp154
(lp155
I21
aF0.8014851847622309
aF0.06534859361658138
aa(lp156
I30
aF0.882854383437835
aF0.1896441177450338
aasF0.4444444444444444
(lp157
(lp158
I29
aF0.8204624913969102
aF0.02746771587200153
aasF0.6666666666666666
(lp159
(lp160
I21
aF0.7488221434057905
aF0.1437067504872564
aasF0.8888888888888888
(lp161
(lp162
I28
aF0.39543401393546007
aF0.6932253828707419
aa(lp163
I27
aF0.36176164108471903
aF0.2028206782485421
aa(lp164
I12
aF0.8503371693722157
aF0.5802597394050237
aa(lp165
I28
aF0.24756933705361503
aF0.3888437186296745
aa(lp166
I13
aF0.9323316635356346
aF0.4326731072248124
aa(lp167
I11
aF0.8872931308104236
aF0.6794490830660336
aa(lp168
I10
aF0.34061086577751615
aF0.24036218682574037
aa(lp169
I23
aF0.5687099340166646
aF0.2068135160153161
aa(lp170
I26
aF0.5538595807582389
aF0.37066102699038656
aassI6
(dp171
F0.7777777777777778
(lp172
(lp173
I14
aF0.5483110354458652
aF0.5895125477750538
aa(lp174
I19
aF0.6321501256281179
aF0.9157463936630083
aa(lp175
I15
aF0.2832989830176275
aF0.4230435536616993
aa(lp176
I14
aF0.6840620667352124
aF0.8490130699481907
aa(lp177
I17
aF0.9779276569453339
aF0.5731968822098893
aa(lp178
I27
aF0.06485392579496096
aF0.15547874012716756
aa(lp179
I15
aF0.791437132801368
aF0.8891931210906868
aasF0.5555555555555556
(lp180
(lp181
I23
aF0.7543115460320133
aF0.5616563028097836
aa(lp182
I26
aF0.49268122691729427
aF0.2521608020513654
aa(lp183
I27
aF0.5774708594525514
aF0.6546374814823434
aasF0.4444444444444444
(lp184
(lp185
I23
aF0.8095639787678165
aF0.24406815787126235
aa(lp186
I21
aF0.8498902439488701
aF0.9326061367213664
aa(lp187
I23
aF0.8211715583762172
aF0.9163498642749864
aasF0.8888888888888888
(lp188
(lp189
I12
aF0.9489510821807988
aF0.7803698614785592
aa(lp190
I14
aF0.5726300696347397
aF0.6957396892709742
aa(lp191
I13
aF0.3676202486914395
aF0.8186520482436954
aa(lp192
I12
aF0.3740913165256872
aF0.9012579839027149
aa(lp193
I10
aF0.22260200749170797
aF0.35726960686837045
aa(lp194
I27
aF0.10171469324659643
aF0.5921827033199677
aa(lp195
I17
aF0.41414552305995234
aF0.33671054804555645
aa(lp196
I22
aF0.24507176447239484
aF0.9412099544276608
aasF0.3333333333333333
(lp197
(lp198
I29
aF0.5280666928858355
aF0.13607732767289304
aa(lp199
I18
aF0.4234030316524678
aF0.030231310592533672
aasF0.2222222222222222
(lp200
(lp201
I26
aF0.9309095109645742
aF0.020745934458906705
aa(lp202
I27
aF0.7020438978841161
aF0.054975937947787164
aasF0.6666666666666666
(lp203
(lp204
I20
aF0.45077666348639317
aF0.7476851994334184
aa(lp205
I12
aF0.7670049470129202
aF0.7614526056607216
aa(lp206
I25
aF0.16612527138482044
aF0.09585450368503404
aa(lp207
I12
aF0.4202461423722389
aF0.15228827817059085
aa(lp208
I27
aF0.4687606415209065
aF0.41904714187265113
aassI7
(dp209
F0.6666666666666666
(lp210
(lp211
I18
aF0.29360544337747896
aF0.5533032638809197
aa(lp212
I11
aF0.901712855107942
aF0.8975732276090724
aa(lp213
I17
aF0.08062069684410242
aF0.9392923242557377
aasF0.4444444444444444
(lp214
(lp215
I15
aF0.8170687874145024
aF0.22142447013187275
aa(lp216
I23
aF0.7828551341251414
aF0.554537154924344
aa(lp217
I28
aF0.7020566599891281
aF0.509837242552583
aa(lp218
I26
aF0.26796343568274783
aF0.1884221401601322
aa(lp219
I24
aF0.38655744170311157
aF0.6464143291114853
aa(lp220
I30
aF0.43875306057647445
aF0.6757690295870749
aa(lp221
I14
aF0.49722682083982245
aF0.152399349987634
aa(lp222
I25
aF0.6784230708991807
aF0.7584700764351472
aasF0.3333333333333333
(lp223
(lp224
I15
aF0.8581367850037417
aF0.2996229641877917
aa(lp225
I24
aF0.892745910186951
aF0.720973633852768
aa(lp226
I27
aF0.5966686081568083
aF0.7145111371206068
aa(lp227
I22
aF0.6978950665153485
aF0.2729143613749137
aa(lp228
I25
aF0.9593398742803443
aF0.8816748087999274
aasF0.2222222222222222
(lp229
(lp230
I14
aF0.9883640684339112
aF0.03163476160089374
aa(lp231
I12
aF0.31672694495599885
aF0.036098781160561186
aa(lp232
I14
aF0.8540525546557003
aF0.07867093715870832
aasF0.5555555555555556
(lp233
(lp234
I24
aF0.3813724885498644
aF0.9498251944011603
aa(lp235
I28
aF0.3461528771888422
aF0.6887325706512379
aa(lp236
I18
aF0.6262560989281138
aF0.7096154660242894
aa(lp237
I24
aF0.3941972441678857
aF0.7251884165146738
aa(lp238
I19
aF0.3212612969019828
aF0.5269229147527519
aa(lp239
I23
aF0.48411477829497157
aF0.9712607833433976
aa(lp240
I20
aF0.6146259070067809
aF0.6153795431689526
aa(lp241
I19
aF0.4322361181851226
aF0.4931378449636944
aa(lp242
I23
aF0.1375501034221072
aF0.2592924847711535
aa(lp243
I20
aF0.9912993984916373
aF0.6307662658645697
aa(lp244
I15
aF0.2926043000453512
aF0.5321169703005731
aassI8
(dp245
F0.2222222222222222
(lp246
(lp247
I13
aF0.9637430937255207
aF0.33787643127583095
aa(lp248
I30
aF0.9943428901226328
aF0.28112347328069187
aa(lp249
I28
aF0.9303271383578886
aF0.3085953406969977
aa(lp250
I13
aF0.9751020394315216
aF0.2582809104548325
aasF0.5555555555555556
(lp251
(lp252
I10
aF0.8759039286074889
aF0.4924399945954497
aa(lp253
I19
aF0.7215713641225475
aF0.5209301032733882
aa(lp254
I26
aF0.45117871278647853
aF0.5707512934536961
aa(lp255
I25
aF0.955793894631767
aF0.7745026435908642
aa(lp256
I16
aF0.2552589018655612
aF0.6799025907180659
aa(lp257
I21
aF0.09046040642774257
aF0.767102496209207
aasF0.4444444444444444
(lp258
(lp259
I24
aF0.9840754131616407
aF0.5388537719595082
aa(lp260
I17
aF0.12312657734014976
aF0.3712887808416851
aa(lp261
I22
aF0.8695455682035709
aF0.3058501453775024
aa(lp262
I16
aF0.9447850056763644
aF0.9535452573412486
aa(lp263
I14
aF0.5431054779661137
aF0.35523738511043806
aa(lp264
I22
aF0.573556064890641
aF0.3683510258775219
aa(lp265
I11
aF0.8260298546554337
aF0.9105884553726651
aa(lp266
I15
aF0.049581683011292385
aF0.956601565354574
aa(lp267
I21
aF0.14996189053001313
aF0.3030121116554577
aa(lp268
I27
aF0.9837941913860541
aF0.7576156622452148
aa(lp269
I18
aF0.9112091889227365
aF0.9217772637534414
aasF0.6666666666666666
(lp270
(lp271
I18
aF0.8075584923743258
aF0.8216884471851184
aasF0.1111111111111111
(lp272
(lp273
I26
aF0.400399973971558
aF0.06886263448735735
aa(lp274
I29
aF0.548950659985141
aF0.09367164769826457
aa(lp275
I26
aF0.946706074189527
aF0.03352897333207519
aasF0.3333333333333333
(lp276
(lp277
I12
aF0.19363324285602626
aF0.44289839983161994
aa(lp278
I21
aF0.968446495848951
aF0.9370449724688187
aa(lp279
I13
aF0.7084629274122066
aF0.8183042885590854
aa(lp280
I19
aF0.3095448707503353
aF0.6187393025792939
aa(lp281
I15
aF0.9888815705483648
aF0.20517689296135708
aassI9
(dp282
F0.4444444444444444
(lp283
(lp284
I29
aF0.7107497102035146
aF0.6725355766382166
aasF0.2222222222222222
(lp285
(lp286
I26
aF0.10024786890262491
aF0.47682453377925654
aa(lp287
I15
aF0.46927949074095865
aF0.3396336529478859
aa(lp288
I29
aF0.9688033865676632
aF0.6421071419328669
aa(lp289
I28
aF0.6763635713067304
aF0.761483422613555
aa(lp290
I14
aF0.9374319144382727
aF0.6459197119592763
aa(lp291
I13
aF0.3806790447961047
aF0.21957039807079076
aa(lp292
I24
aF0.2110320082340928
aF0.38679519385678657
aa(lp293
I30
aF0.5496447472653436
aF0.6182151497090737
aa(lp294
I17
aF0.01907906241501771
aF0.37275034856633127
aa(lp295
I23
aF0.2186871609948067
aF0.9860131146576744
aa(lp296
I15
aF0.6947916256857932
aF0.33285581279329485
aa(lp297
I25
aF0.6457160763372031
aF0.3930661593333144
aa(lp298
I26
aF0.2107867584896085
aF0.43445833364796144
aa(lp299
I17
aF0.426121297113088
aF0.47325778323140893
aasF0.3333333333333333
(lp300
(lp301
I29
aF0.4310646056355623
aF0.8529965141438426
aa(lp302
I25
aF0.013095013149779698
aF0.7842512789366314
aa(lp303
I25
aF0.4188375646354516
aF0.5838208332988863
aa(lp304
I19
aF0.5975340811981645
aF0.7487449916595295
aa(lp305
I21
aF0.7136334128074437
aF0.8696435405520437
aa(lp306
I26
aF0.2860175316805607
aF0.3747845559852401
aa(lp307
I13
aF0.8734351588768681
aF0.5875123232548519
aa(lp308
I28
aF0.2692636677381214
aF0.5073429340034444
aa(lp309
I29
aF0.4248010193032515
aF0.773034509233062
aasF0.1111111111111111
(lp310
(lp311
I20
aF0.5788253110554884
aF0.15636106343528558
aa(lp312
I23
aF0.8443600083317292
aF0.0982338182619532
aa(lp313
I16
aF0.03450646669982176
aF0.1482051585147132
aa(lp314
I22
aF0.0603316135887744
aF0.6734576494172337
aa(lp315
I26
aF0.029989320814046184
aF0.05686381035878335
aa(lp316
I13
aF0.6336925543734444
aF0.02103157871333078
aasssa(dp317
g2
F874.1659400463104
sa.